

Microchip MPLAB XC8 Assembler V2.10 build 88905656 
                                                                                               Wed Jan 01 16:04:32 2020

Microchip MPLAB XC8 C Compiler v2.10 (Free license) build 20190730164152 Og1 
     1                           	processor	18F4520
     2                           	fnconf	rparam,??,?,0
     3                           	opt	pw 120
     4                           	opt	flic
     5                           	psect	smallconst,global,reloc=2,class=SMALLCONST,delta=1,noexec
     6                           	psect	cinit,global,reloc=2,class=CODE,delta=1
     7                           	psect	bssCOMRAM,global,class=COMRAM,space=1,delta=1,noexec
     8                           	psect	cstackBANK0,global,class=BANK0,space=1,delta=1,noexec
     9                           	psect	cstackCOMRAM,global,class=COMRAM,space=1,delta=1,noexec
    10                           	psect	text0,global,reloc=2,class=CODE,delta=1
    11                           	psect	text1,global,reloc=2,class=CODE,delta=1
    12                           	psect	text2,global,reloc=2,class=CODE,delta=1
    13                           	psect	text3,global,reloc=2,class=CODE,delta=1
    14                           	psect	text4,global,reloc=2,class=CODE,delta=1,group=1
    15                           	psect	text5,global,reloc=2,class=CODE,delta=1,group=1
    16                           	psect	text6,global,reloc=2,class=CODE,delta=1
    17                           	psect	text7,global,reloc=2,class=CODE,delta=1,group=1
    18                           	psect	text8,global,reloc=2,class=CODE,delta=1,group=1
    19                           	psect	text9,global,reloc=2,class=CODE,delta=1,group=1
    20                           	psect	text10,global,reloc=2,class=CODE,delta=1,group=1
    21                           	psect	text11,global,reloc=2,class=CODE,delta=1,group=1
    22                           	psect	intcode,global,reloc=2,class=CODE,delta=1
    23                           	psect	intcode_body,global,reloc=2,class=CODE,delta=1
    24                           	psect	text13,global,reloc=2,class=CODE,delta=1
    25                           	psect	text14,global,reloc=2,class=CODE,delta=1
    26                           	psect	text15,global,reloc=2,class=CODE,delta=1
    27                           	psect	text16,global,reloc=2,class=CODE,delta=1
    28                           	psect	intsave_regs,global,class=BIGRAM,space=1,delta=1,noexec
    29                           	psect	rparam,global,class=COMRAM,space=1,delta=1,noexec
    30                           	psect	temp,global,ovrld,common,class=COMRAM,space=1,delta=1
    31  0000                     
    32                           ; Version 2.10
    33                           ; Generated 31/07/2019 GMT
    34                           ; 
    35                           ; Copyright © 2019, Microchip Technology Inc. and its subsidiaries ("Microchip")
    36                           ; All rights reserved.
    37                           ; 
    38                           ; This software is developed by Microchip Technology Inc. and its subsidiaries ("Microch
      +                          ip").
    39                           ; 
    40                           ; Redistribution and use in source and binary forms, with or without modification, are
    41                           ; permitted provided that the following conditions are met:
    42                           ; 
    43                           ;     1. Redistributions of source code must retain the above copyright notice, this lis
      +                          t of
    44                           ;        conditions and the following disclaimer.
    45                           ; 
    46                           ;     2. Redistributions in binary form must reproduce the above copyright notice, this 
      +                          list
    47                           ;        of conditions and the following disclaimer in the documentation and/or other
    48                           ;        materials provided with the distribution.
    49                           ; 
    50                           ;     3. Microchip's name may not be used to endorse or promote products derived from th
      +                          is
    51                           ;        software without specific prior written permission.
    52                           ; 
    53                           ; THIS SOFTWARE IS PROVIDED BY MICROCHIP "AS IS" AND ANY EXPRESS OR IMPLIED WARRANTIES,
    54                           ; INCLUDING, BUT NOT LIMITED TO, THE IMPLIED WARRANTIES OF MERCHANTABILITY AND FITNESS F
      +                          OR
    55                           ; PURPOSE ARE DISCLAIMED.  IN NO EVENT SHALL MICROCHIP BE LIABLE FOR ANY DIRECT, INDIREC
      +                          T,
    56                           ; INCIDENTAL, SPECIAL, EXEMPLARY, OR CONSEQUENTIAL DAMAGES (INCLUDING BUT NOT LIMITED TO
    57                           ; PROCUREMENT OF SUBSTITUTE GOODS OR SERVICES; LOSS OF USE, DATA OR PROFITS; OR BUSINESS
    58                           ; INTERRUPTION) HOWSOEVER CAUSED AND ON ANY THEORY OF LIABILITY, WHETHER IN CONTRACT, ST
      +                          RICT
    59                           ; LIABILITY, OR TORT (INCLUDING NEGLIGENCE OR OTHERWISE) ARISING IN ANY WAY OUT OF THE U
      +                          SE OF
    60                           ; THIS SOFTWARE, EVEN IF ADVISED OF THE POSSIBILITY OF SUCH DAMAGE.
    61                           ; 
    62                           ; 
    63                           ; Code-generator required, PIC18F4520 Definitions
    64                           ; 
    65                           ; SFR Addresses
    66  0000                     
    67                           	psect	smallconst
    68  000600                     __psmallconst:
    69                           	opt callstack 0
    70  000600  00                 	db	0
    71  000601                     _value:
    72                           	opt callstack 0
    73  000601  3F                 	db	63
    74  000602  06                 	db	6
    75  000603  5B                 	db	91
    76  000604  4F                 	db	79
    77  000605  66                 	db	102
    78  000606  6D                 	db	109
    79  000607  7D                 	db	125
    80  000608  07                 	db	7
    81  000609  7F                 	db	127
    82  00060A  6F                 	db	111
    83  00060B                     __end_of_value:
    84                           	opt callstack 0
    85  0000                     _LATD	set	3980
    86  0000                     _LATAbits	set	3977
    87  0000                     _TRISDbits	set	3989
    88  0000                     _TRISAbits	set	3986
    89  0000                     _TRISA	set	3986
    90  0000                     _PORTBbits	set	3969
    91  0000                     _TRISBbits	set	3987
    92  0000                     _TRISCbits	set	3988
    93  0000                     _TRISD	set	3989
    94  0000                     _ADCON0bits	set	4034
    95  0000                     _ADCON1bits	set	4033
    96  0000                     _CMCON	set	4020
    97  0000                     _RCONbits	set	4048
    98  0000                     _T2CONbits	set	4042
    99  0000                     _TMR2	set	4044
   100  0000                     _T2CON	set	4042
   101  0000                     _PR2	set	4043
   102  0000                     _OSCCON	set	4051
   103  0000                     _CCP1CON	set	4029
   104  0000                     _CCPR1L	set	4030
   105  0000                     _INTCON2	set	4081
   106  0000                     _INTCONbits	set	4082
   107                           
   108                           ; #config settings
   109  00060B  00                 	db	0	; dummy byte at the end
   110  0000                     
   111                           	psect	cinit
   112  001D46                     __pcinit:
   113                           	opt callstack 0
   114  001D46                     start_initialization:
   115                           	opt callstack 0
   116  001D46                     __initialization:
   117                           	opt callstack 0
   118                           
   119                           ; Clear objects allocated to COMRAM (22 bytes)
   120  001D46  EE00  F057         	lfsr	0,__pbssCOMRAM
   121  001D4A  0E16               	movlw	22
   122  001D4C                     clear_0:
   123  001D4C  6AEE               	clrf	postinc0,c
   124  001D4E  06E8               	decf	wreg,f,c
   125  001D50  E1FD               	bnz	clear_0
   126  001D52                     end_of_initialization:
   127                           	opt callstack 0
   128  001D52                     __end_of__initialization:
   129                           	opt callstack 0
   130  001D52  906D               	bcf	int$flags,0,c	;clear compiler interrupt flag (level 1)
   131  001D54  926D               	bcf	int$flags,1,c	;clear compiler interrupt flag (level 2)
   132  001D56  0E00               	movlw	low (__Lsmallconst shr (0+16))
   133  001D58  6EF8               	movwf	tblptru,c
   134  001D5A  0E06               	movlw	high __Lsmallconst
   135  001D5C  6EF7               	movwf	tblptrh,c
   136  001D5E  0100               	movlb	0
   137  001D60  EF22  F00A         	goto	_main	;jump to C main() function
   138                           
   139                           	psect	bssCOMRAM
   140  000057                     __pbssCOMRAM:
   141                           	opt callstack 0
   142  000057                     _delay_forsecond:
   143                           	opt callstack 0
   144  000057                     	ds	2
   145  000059                     _time:
   146                           	opt callstack 0
   147  000059                     	ds	2
   148  00005B                     _num4:
   149                           	opt callstack 0
   150  00005B                     	ds	2
   151  00005D                     _num3:
   152                           	opt callstack 0
   153  00005D                     	ds	2
   154  00005F                     _num2:
   155                           	opt callstack 0
   156  00005F                     	ds	2
   157  000061                     _num1:
   158                           	opt callstack 0
   159  000061                     	ds	2
   160  000063                     _num0:
   161                           	opt callstack 0
   162  000063                     	ds	2
   163  000065                     _count:
   164                           	opt callstack 0
   165  000065                     	ds	2
   166  000067                     _k:
   167                           	opt callstack 0
   168  000067                     	ds	2
   169  000069                     _j:
   170                           	opt callstack 0
   171  000069                     	ds	2
   172  00006B                     _i:
   173                           	opt callstack 0
   174  00006B                     	ds	2
   175                           
   176                           	psect	cstackBANK0
   177  000080                     __pcstackBANK0:
   178                           	opt callstack 0
   179  000080                     _SetDutyCycleTo$1340:
   180                           	opt callstack 0
   181                           
   182                           ; 4 bytes @ 0x0
   183  000080                     	ds	4
   184  000084                     SetDutyCycleTo@PWM10BitValue:
   185                           	opt callstack 0
   186                           
   187                           ; 2 bytes @ 0x4
   188  000084                     	ds	2
   189                           
   190                           	psect	cstackCOMRAM
   191  000001                     __pcstackCOMRAM:
   192                           	opt callstack 0
   193  000001                     ??i2_display:
   194  000001                     ?i2___lwdiv:
   195                           	opt callstack 0
   196  000001                     ?i2___lwmod:
   197                           	opt callstack 0
   198  000001                     i2___lwdiv@dividend:
   199                           	opt callstack 0
   200  000001                     i2___lwmod@dividend:
   201                           	opt callstack 0
   202                           
   203                           ; 2 bytes @ 0x0
   204  000001                     	ds	2
   205  000003                     i2___lwdiv@divisor:
   206                           	opt callstack 0
   207  000003                     i2___lwmod@divisor:
   208                           	opt callstack 0
   209                           
   210                           ; 2 bytes @ 0x2
   211  000003                     	ds	2
   212  000005                     i2___lwmod@counter:
   213                           	opt callstack 0
   214  000005                     i2___lwdiv@quotient:
   215                           	opt callstack 0
   216                           
   217                           ; 2 bytes @ 0x4
   218  000005                     	ds	2
   219  000007                     i2___lwdiv@counter:
   220                           	opt callstack 0
   221                           
   222                           ; 1 bytes @ 0x6
   223  000007                     	ds	1
   224  000008                     ??_ISR:
   225  000008                     
   226                           ; 1 bytes @ 0x7
   227  000008                     	ds	6
   228  00000E                     ??_display:
   229  00000E                     ?___lwdiv:
   230                           	opt callstack 0
   231  00000E                     ?___lwmod:
   232                           	opt callstack 0
   233  00000E                     ?___fldiv:
   234                           	opt callstack 0
   235  00000E                     ?___xxtofl:
   236                           	opt callstack 0
   237  00000E                     delay@val:
   238                           	opt callstack 0
   239  00000E                     ___lwdiv@dividend:
   240                           	opt callstack 0
   241  00000E                     ___lwmod@dividend:
   242                           	opt callstack 0
   243  00000E                     ___fldiv@b:
   244                           	opt callstack 0
   245  00000E                     ___xxtofl@val:
   246                           	opt callstack 0
   247                           
   248                           ; 4 bytes @ 0xD
   249  00000E                     	ds	2
   250  000010                     delay@i:
   251                           	opt callstack 0
   252  000010                     ___lwdiv@divisor:
   253                           	opt callstack 0
   254  000010                     ___lwmod@divisor:
   255                           	opt callstack 0
   256                           
   257                           ; 2 bytes @ 0xF
   258  000010                     	ds	2
   259  000012                     ??___xxtofl:
   260  000012                     ___lwmod@counter:
   261                           	opt callstack 0
   262  000012                     delay@j:
   263                           	opt callstack 0
   264  000012                     ___lwdiv@quotient:
   265                           	opt callstack 0
   266  000012                     ___fldiv@a:
   267                           	opt callstack 0
   268                           
   269                           ; 4 bytes @ 0x11
   270  000012                     	ds	2
   271  000014                     ___lwdiv@counter:
   272                           	opt callstack 0
   273                           
   274                           ; 1 bytes @ 0x13
   275  000014                     	ds	1
   276  000015                     
   277                           ; 1 bytes @ 0x14
   278  000015                     	ds	1
   279  000016                     ??___fldiv:
   280  000016                     ___xxtofl@sign:
   281                           	opt callstack 0
   282                           
   283                           ; 1 bytes @ 0x15
   284  000016                     	ds	1
   285  000017                     ___xxtofl@exp:
   286                           	opt callstack 0
   287                           
   288                           ; 1 bytes @ 0x16
   289  000017                     	ds	1
   290  000018                     ___xxtofl@arg:
   291                           	opt callstack 0
   292                           
   293                           ; 4 bytes @ 0x17
   294  000018                     	ds	2
   295  00001A                     ___fldiv@rem:
   296                           	opt callstack 0
   297                           
   298                           ; 4 bytes @ 0x19
   299  00001A                     	ds	2
   300  00001C                     ?___fladd:
   301                           	opt callstack 0
   302  00001C                     ___fladd@b:
   303                           	opt callstack 0
   304                           
   305                           ; 4 bytes @ 0x1B
   306  00001C                     	ds	2
   307  00001E                     ___fldiv@sign:
   308                           	opt callstack 0
   309                           
   310                           ; 1 bytes @ 0x1D
   311  00001E                     	ds	1
   312  00001F                     ___fldiv@new_exp:
   313                           	opt callstack 0
   314                           
   315                           ; 2 bytes @ 0x1E
   316  00001F                     	ds	1
   317  000020                     ___fladd@a:
   318                           	opt callstack 0
   319                           
   320                           ; 4 bytes @ 0x1F
   321  000020                     	ds	1
   322  000021                     ___fldiv@grs:
   323                           	opt callstack 0
   324                           
   325                           ; 4 bytes @ 0x20
   326  000021                     	ds	3
   327  000024                     ??___fladd:
   328                           
   329                           ; 1 bytes @ 0x23
   330  000024                     	ds	1
   331  000025                     ___fldiv@bexp:
   332                           	opt callstack 0
   333                           
   334                           ; 1 bytes @ 0x24
   335  000025                     	ds	1
   336  000026                     ___fldiv@aexp:
   337                           	opt callstack 0
   338                           
   339                           ; 1 bytes @ 0x25
   340  000026                     	ds	2
   341  000028                     ___fladd@signs:
   342                           	opt callstack 0
   343                           
   344                           ; 1 bytes @ 0x27
   345  000028                     	ds	1
   346  000029                     ___fladd@aexp:
   347                           	opt callstack 0
   348                           
   349                           ; 1 bytes @ 0x28
   350  000029                     	ds	1
   351  00002A                     ___fladd@bexp:
   352                           	opt callstack 0
   353                           
   354                           ; 1 bytes @ 0x29
   355  00002A                     	ds	1
   356  00002B                     ___fladd@grs:
   357                           	opt callstack 0
   358                           
   359                           ; 1 bytes @ 0x2A
   360  00002B                     	ds	1
   361  00002C                     ?___flmul:
   362                           	opt callstack 0
   363  00002C                     ___flmul@b:
   364                           	opt callstack 0
   365                           
   366                           ; 4 bytes @ 0x2B
   367  00002C                     	ds	4
   368  000030                     ___flmul@a:
   369                           	opt callstack 0
   370                           
   371                           ; 4 bytes @ 0x2F
   372  000030                     	ds	4
   373  000034                     ??___flmul:
   374                           
   375                           ; 1 bytes @ 0x33
   376  000034                     	ds	4
   377  000038                     ___flmul@sign:
   378                           	opt callstack 0
   379                           
   380                           ; 1 bytes @ 0x37
   381  000038                     	ds	1
   382  000039                     ___flmul@aexp:
   383                           	opt callstack 0
   384                           
   385                           ; 1 bytes @ 0x38
   386  000039                     	ds	1
   387  00003A                     ___flmul@grs:
   388                           	opt callstack 0
   389                           
   390                           ; 4 bytes @ 0x39
   391  00003A                     	ds	4
   392  00003E                     ___flmul@bexp:
   393                           	opt callstack 0
   394                           
   395                           ; 1 bytes @ 0x3D
   396  00003E                     	ds	1
   397  00003F                     ___flmul@prod:
   398                           	opt callstack 0
   399                           
   400                           ; 4 bytes @ 0x3E
   401  00003F                     	ds	4
   402  000043                     ___flmul@temp:
   403                           	opt callstack 0
   404                           
   405                           ; 2 bytes @ 0x42
   406  000043                     	ds	2
   407  000045                     ?___fltol:
   408                           	opt callstack 0
   409  000045                     ___fltol@f1:
   410                           	opt callstack 0
   411                           
   412                           ; 4 bytes @ 0x44
   413  000045                     	ds	4
   414  000049                     ??___fltol:
   415                           
   416                           ; 1 bytes @ 0x48
   417  000049                     	ds	4
   418  00004D                     ___fltol@sign1:
   419                           	opt callstack 0
   420                           
   421                           ; 1 bytes @ 0x4C
   422  00004D                     	ds	1
   423  00004E                     ___fltol@exp1:
   424                           	opt callstack 0
   425                           
   426                           ; 1 bytes @ 0x4D
   427  00004E                     	ds	1
   428  00004F                     SetDutyCycleTo@Duty_cycle:
   429                           	opt callstack 0
   430                           
   431                           ; 4 bytes @ 0x4E
   432  00004F                     	ds	4
   433  000053                     SetDutyCycleTo@Period:
   434                           	opt callstack 0
   435                           
   436                           ; 2 bytes @ 0x52
   437  000053                     	ds	2
   438  000055                     ??_SetDutyCycleTo:
   439                           
   440                           ; 1 bytes @ 0x54
   441  000055                     	ds	2
   442  000057                     
   443                           ; 1 bytes @ 0x56
   444 ;;
   445 ;;Main: autosize = 0, tempsize = 0, incstack = 0, save=0
   446 ;;
   447 ;; *************** function _main *****************
   448 ;; Defined at:
   449 ;;		line 92 in file "newmain.c"
   450 ;; Parameters:    Size  Location     Type
   451 ;;		None
   452 ;; Auto vars:     Size  Location     Type
   453 ;;  Period          2    0        int 
   454 ;;  digit           1    0        unsigned char 
   455 ;; Return value:  Size  Location     Type
   456 ;;                  1    wreg      void 
   457 ;; Registers used:
   458 ;;		wreg, status,2, status,0, tblptrl, tblptrh, tblptru, prodl, prodh, cstack
   459 ;; Tracked objects:
   460 ;;		On entry : 0/0
   461 ;;		On exit  : 0/0
   462 ;;		Unchanged: 0/0
   463 ;; Data sizes:     COMRAM   BANK0   BANK1   BANK2   BANK3   BANK4   BANK5
   464 ;;      Params:         0       0       0       0       0       0       0
   465 ;;      Locals:         3       0       0       0       0       0       0
   466 ;;      Temps:          0       0       0       0       0       0       0
   467 ;;      Totals:         3       0       0       0       0       0       0
   468 ;;Total ram usage:        3 bytes
   469 ;; Hardware stack levels required when called:    5
   470 ;; This function calls:
   471 ;;		_SetDutyCycleTo
   472 ;;		_count_digit
   473 ;;		_delay
   474 ;;		_display
   475 ;; This function is called by:
   476 ;;		Startup code after reset
   477 ;; This function uses a non-reentrant model
   478 ;;
   479                           
   480                           	psect	text0
   481  001444                     __ptext0:
   482                           	opt callstack 0
   483  001444                     _main:
   484                           	opt callstack 26
   485  001444                     
   486                           ;newmain.c: 95:   TRISD = 0x00;
   487  001444  0E00               	movlw	0
   488  001446  6E95               	movwf	149,c	;volatile
   489  001448                     
   490                           ;newmain.c: 96:   TRISCbits.RC0=0x01;
   491  001448  8094               	bsf	148,0,c	;volatile
   492                           
   493                           ;newmain.c: 97:   OSCCON = 0X76;
   494  00144A  0E76               	movlw	118
   495  00144C  6ED3               	movwf	211,c	;volatile
   496  00144E                     
   497                           ;newmain.c: 101:     TRISBbits.TRISB0=1;
   498  00144E  8093               	bsf	147,0,c	;volatile
   499  001450                     
   500                           ;newmain.c: 102:     PORTBbits.RB0 =1;
   501  001450  8081               	bsf	129,0,c	;volatile
   502  001452                     
   503                           ;newmain.c: 103:     TRISCbits.TRISC2 = 0;
   504  001452  9494               	bcf	148,2,c	;volatile
   505                           
   506                           ;newmain.c: 104:     CCP1CON = 0x0C;
   507  001454  0E0C               	movlw	12
   508  001456  6EBD               	movwf	189,c	;volatile
   509                           
   510                           ;newmain.c: 105:     CCP1CON = 0x0C;
   511  001458  0E0C               	movlw	12
   512  00145A  6EBD               	movwf	189,c	;volatile
   513  00145C                     
   514                           ;newmain.c: 107:     PR2 = (int)Period;
   515  00145C  0E9B               	movlw	155
   516  00145E  6ECB               	movwf	203,c	;volatile
   517                           
   518                           ;newmain.c: 108:     T2CON = 2;
   519  001460  0E02               	movlw	2
   520  001462  6ECA               	movwf	202,c	;volatile
   521                           
   522                           ;newmain.c: 109:     TMR2 = 0;
   523  001464  0E00               	movlw	0
   524  001466  6ECC               	movwf	204,c	;volatile
   525  001468                     
   526                           ;newmain.c: 110:     T2CONbits.TMR2ON = 1;
   527  001468  84CA               	bsf	202,2,c	;volatile
   528  00146A                     
   529                           ;newmain.c: 111:     SetDutyCycleTo(2.5, Period);
   530  00146A  0E00               	movlw	0
   531  00146C  6E4F               	movwf	SetDutyCycleTo@Duty_cycle^0,c
   532  00146E  0E00               	movlw	0
   533  001470  6E50               	movwf	(SetDutyCycleTo@Duty_cycle+1)^0,c
   534  001472  0E20               	movlw	32
   535  001474  6E51               	movwf	(SetDutyCycleTo@Duty_cycle+2)^0,c
   536  001476  0E40               	movlw	64
   537  001478  6E52               	movwf	(SetDutyCycleTo@Duty_cycle+3)^0,c
   538  00147A  0E00               	movlw	0
   539  00147C  6E54               	movwf	(SetDutyCycleTo@Period+1)^0,c
   540  00147E  0E9B               	movlw	155
   541  001480  6E53               	movwf	SetDutyCycleTo@Period^0,c
   542  001482  EC2E  F00B         	call	_SetDutyCycleTo	;wreg free
   543  001486                     
   544                           ;newmain.c: 112:     delay(800);
   545  001486  0E03               	movlw	3
   546  001488  6E0F               	movwf	(delay@val+1)^0,c
   547  00148A  0E20               	movlw	32
   548  00148C  6E0E               	movwf	delay@val^0,c
   549  00148E  EC7E  F00E         	call	_delay	;wreg free
   550  001492                     
   551                           ;newmain.c: 113:     SetDutyCycleTo(12.0, Period);
   552  001492  0E00               	movlw	0
   553  001494  6E4F               	movwf	SetDutyCycleTo@Duty_cycle^0,c
   554  001496  0E00               	movlw	0
   555  001498  6E50               	movwf	(SetDutyCycleTo@Duty_cycle+1)^0,c
   556  00149A  0E40               	movlw	64
   557  00149C  6E51               	movwf	(SetDutyCycleTo@Duty_cycle+2)^0,c
   558  00149E  0E41               	movlw	65
   559  0014A0  6E52               	movwf	(SetDutyCycleTo@Duty_cycle+3)^0,c
   560  0014A2  0E00               	movlw	0
   561  0014A4  6E54               	movwf	(SetDutyCycleTo@Period+1)^0,c
   562  0014A6  0E9B               	movlw	155
   563  0014A8  6E53               	movwf	SetDutyCycleTo@Period^0,c
   564  0014AA  EC2E  F00B         	call	_SetDutyCycleTo	;wreg free
   565  0014AE                     
   566                           ;newmain.c: 114:     delay(800);
   567  0014AE  0E03               	movlw	3
   568  0014B0  6E0F               	movwf	(delay@val+1)^0,c
   569  0014B2  0E20               	movlw	32
   570  0014B4  6E0E               	movwf	delay@val^0,c
   571  0014B6  EC7E  F00E         	call	_delay	;wreg free
   572  0014BA                     
   573                           ;newmain.c: 115:     TRISCbits.TRISC2 = 1;
   574  0014BA  8494               	bsf	148,2,c	;volatile
   575                           
   576                           ;newmain.c: 119: time = 60;
   577  0014BC  0E00               	movlw	0
   578  0014BE  6E5A               	movwf	(_time+1)^0,c
   579  0014C0  0E3C               	movlw	60
   580  0014C2  6E59               	movwf	_time^0,c
   581  0014C4                     
   582                           ;newmain.c: 120: RCONbits.IPEN = 1;
   583  0014C4  8ED0               	bsf	208,7,c	;volatile
   584                           
   585                           ;newmain.c: 121: TRISD = 0;
   586  0014C6  0E00               	movlw	0
   587  0014C8  6E95               	movwf	149,c	;volatile
   588                           
   589                           ;newmain.c: 123: TRISA=0;
   590  0014CA  0E00               	movlw	0
   591  0014CC  6E92               	movwf	146,c	;volatile
   592  0014CE                     
   593                           ;newmain.c: 124: TRISAbits.RA4 = 0;
   594  0014CE  9892               	bcf	146,4,c	;volatile
   595  0014D0                     
   596                           ;newmain.c: 125: TRISAbits.TRISA3 = 0;
   597  0014D0  9692               	bcf	146,3,c	;volatile
   598  0014D2                     
   599                           ;newmain.c: 126: TRISDbits.TRISD0 = 0;
   600  0014D2  9095               	bcf	149,0,c	;volatile
   601  0014D4                     
   602                           ;newmain.c: 127: TRISCbits.RC3 = 1;
   603  0014D4  8694               	bsf	148,3,c	;volatile
   604                           
   605                           ;newmain.c: 128: CMCON = 0x07;
   606  0014D6  0E07               	movlw	7
   607  0014D8  6EB4               	movwf	180,c	;volatile
   608  0014DA                     
   609                           ;newmain.c: 129: ADCON1bits.PCFG0 = 1;
   610  0014DA  80C1               	bsf	193,0,c	;volatile
   611  0014DC                     
   612                           ;newmain.c: 130: ADCON1bits.PCFG1 = 1;
   613  0014DC  82C1               	bsf	193,1,c	;volatile
   614  0014DE                     
   615                           ;newmain.c: 131: ADCON1bits.PCFG2 = 1;
   616  0014DE  84C1               	bsf	193,2,c	;volatile
   617  0014E0                     
   618                           ;newmain.c: 132: ADCON1bits.PCFG3 = 1;
   619  0014E0  86C1               	bsf	193,3,c	;volatile
   620  0014E2                     
   621                           ;newmain.c: 133: ADCON0bits.ADON = 0;
   622  0014E2  90C2               	bcf	194,0,c	;volatile
   623  0014E4                     
   624                           ;newmain.c: 134: TRISCbits.RC0=0x01;
   625  0014E4  8094               	bsf	148,0,c	;volatile
   626  0014E6                     
   627                           ;newmain.c: 135: INTCONbits.GIE = 1;
   628  0014E6  8EF2               	bsf	242,7,c	;volatile
   629  0014E8                     
   630                           ;newmain.c: 136: INTCONbits.INT0IE = 1;
   631  0014E8  88F2               	bsf	242,4,c	;volatile
   632  0014EA                     
   633                           ;newmain.c: 137: INTCONbits.INT0IF = 0;
   634  0014EA  92F2               	bcf	242,1,c	;volatile
   635  0014EC                     
   636                           ;newmain.c: 138: TRISBbits.TRISB0=1;
   637  0014EC  8093               	bsf	147,0,c	;volatile
   638                           
   639                           ;newmain.c: 143: INTCON2=0x00;
   640  0014EE  0E00               	movlw	0
   641  0014F0  6EF1               	movwf	241,c	;volatile
   642                           
   643                           ;newmain.c: 144: count = 0;
   644  0014F2  0E00               	movlw	0
   645  0014F4  6E66               	movwf	(_count+1)^0,c
   646  0014F6  0E00               	movlw	0
   647  0014F8  6E65               	movwf	_count^0,c
   648                           
   649                           ;newmain.c: 145: delay_forsecond = 0;
   650  0014FA  0E00               	movlw	0
   651  0014FC  6E58               	movwf	(_delay_forsecond+1)^0,c
   652  0014FE  0E00               	movlw	0
   653  001500  6E57               	movwf	_delay_forsecond^0,c
   654  001502                     
   655                           ;newmain.c: 146: LATAbits.LA4 = 0;
   656  001502  9889               	bcf	137,4,c	;volatile
   657                           
   658                           ;newmain.c: 147: while(time>0)
   659  001504  EFA0  F00A         	goto	l3113
   660  001508                     l3101:
   661                           
   662                           ;newmain.c: 148: {;newmain.c: 149:     count_digit();
   663  001508  ECAD  F00B         	call	_count_digit	;wreg free
   664  00150C                     
   665                           ;newmain.c: 150:     display();
   666  00150C  ECA7  F00C         	call	_display	;wreg free
   667  001510                     
   668                           ;newmain.c: 151:     if(delay_forsecond==5){
   669  001510  0E05               	movlw	5
   670  001512  1857               	xorwf	_delay_forsecond^0,w,c
   671  001514  1058               	iorwf	(_delay_forsecond+1)^0,w,c
   672  001516  A4D8               	btfss	status,2,c
   673  001518  EF90  F00A         	goto	u3321
   674  00151C  EF92  F00A         	goto	u3320
   675  001520                     u3321:
   676  001520  EF9E  F00A         	goto	l3111
   677  001524                     u3320:
   678  001524                     
   679                           ;newmain.c: 152:        time = time -1 ;
   680  001524  0EFF               	movlw	255
   681  001526  2459               	addwf	_time^0,w,c
   682  001528  6E59               	movwf	_time^0,c
   683  00152A  0EFF               	movlw	255
   684  00152C  205A               	addwfc	(_time+1)^0,w,c
   685  00152E  6E5A               	movwf	(_time+1)^0,c
   686  001530                     
   687                           ;newmain.c: 153:        delay_forsecond = 0;
   688  001530  0E00               	movlw	0
   689  001532  6E58               	movwf	(_delay_forsecond+1)^0,c
   690  001534  0E00               	movlw	0
   691  001536  6E57               	movwf	_delay_forsecond^0,c
   692                           
   693                           ;newmain.c: 154:     }
   694  001538  EFA0  F00A         	goto	l3113
   695  00153C                     l3111:
   696                           
   697                           ;newmain.c: 157:        delay_forsecond ++;
   698  00153C  4A57               	infsnz	_delay_forsecond^0,f,c
   699  00153E  2A58               	incf	(_delay_forsecond+1)^0,f,c
   700  001540                     l3113:
   701                           
   702                           ;newmain.c: 147: while(time>0)
   703  001540  5059               	movf	_time^0,w,c
   704  001542  105A               	iorwf	(_time+1)^0,w,c
   705  001544  A4D8               	btfss	status,2,c
   706  001546  EFA7  F00A         	goto	u3331
   707  00154A  EFA9  F00A         	goto	u3330
   708  00154E                     u3331:
   709  00154E  EF84  F00A         	goto	l3101
   710  001552                     u3330:
   711  001552  EF07  F000         	goto	start
   712  001556                     __end_of_main:
   713                           	opt callstack 0
   714                           
   715 ;; *************** function _display *****************
   716 ;; Defined at:
   717 ;;		line 200 in file "newmain.c"
   718 ;; Parameters:    Size  Location     Type
   719 ;;		None
   720 ;; Auto vars:     Size  Location     Type
   721 ;;		None
   722 ;; Return value:  Size  Location     Type
   723 ;;                  1    wreg      void 
   724 ;; Registers used:
   725 ;;		wreg, status,2, status,0, tblptrl, tblptrh, tblptru
   726 ;; Tracked objects:
   727 ;;		On entry : 0/0
   728 ;;		On exit  : 0/0
   729 ;;		Unchanged: 0/0
   730 ;; Data sizes:     COMRAM   BANK0   BANK1   BANK2   BANK3   BANK4   BANK5
   731 ;;      Params:         0       0       0       0       0       0       0
   732 ;;      Locals:         0       0       0       0       0       0       0
   733 ;;      Temps:          1       0       0       0       0       0       0
   734 ;;      Totals:         1       0       0       0       0       0       0
   735 ;;Total ram usage:        1 bytes
   736 ;; Hardware stack levels used:    1
   737 ;; Hardware stack levels required when called:    3
   738 ;; This function calls:
   739 ;;		Nothing
   740 ;; This function is called by:
   741 ;;		_main
   742 ;;		_count_down
   743 ;; This function uses a non-reentrant model
   744 ;;
   745                           
   746                           	psect	text1
   747  00194E                     __ptext1:
   748                           	opt callstack 0
   749  00194E                     _display:
   750                           	opt callstack 27
   751  00194E                     
   752                           ;newmain.c: 202:     for(i=0;i<10;i++)
   753  00194E  0E00               	movlw	0
   754  001950  6E6C               	movwf	(_i+1)^0,c
   755  001952  0E00               	movlw	0
   756  001954  6E6B               	movwf	_i^0,c
   757  001956                     l1475:
   758  001956  506C               	movf	(_i+1)^0,w,c
   759  001958  E109               	bnz	u1130
   760  00195A  0E0A               	movlw	10
   761  00195C  5C6B               	subwf	_i^0,w,c
   762  00195E  A0D8               	btfss	status,0,c
   763  001960  EFB4  F00C         	goto	u1131
   764  001964  EFB6  F00C         	goto	u1130
   765  001968                     u1131:
   766  001968  EFB8  F00C         	goto	l107
   767  00196C                     u1130:
   768  00196C  EF0C  F00D         	goto	l109
   769  001970                     l107:
   770                           
   771                           ;newmain.c: 203:   {;newmain.c: 206:                        LATAbits.LA1=1;LATAbits.LA0=
      +                          0;LATAbits.LA2=0;LATAbits.LA3=0;
   772  001970  8289               	bsf	137,1,c	;volatile
   773  001972  9089               	bcf	137,0,c	;volatile
   774  001974  9489               	bcf	137,2,c	;volatile
   775  001976  9689               	bcf	137,3,c	;volatile
   776  001978                     
   777                           ;newmain.c: 207:                         LATD=value[num1];
   778  001978  0E01               	movlw	low _value
   779  00197A  2461               	addwf	_num1^0,w,c
   780  00197C  6EF6               	movwf	tblptrl,c
   781  00197E  0E06               	movlw	high _value
   782  001980  2062               	addwfc	(_num1+1)^0,w,c
   783  001982  6EF7               	movwf	tblptrh,c
   784  001984                     	if	0	;There are less than 3 active tblptr bytes
   785  001984                     	endif
   786  001984  0008               	tblrd		*
   787  001986  CFF5 FF8C          	movff	tablat,3980	;volatile
   788  00198A                     
   789                           ;newmain.c: 208:                         _delay((unsigned long)((5)*(8000000/4000.0)));
   790  00198A  0E0D               	movlw	13
   791  00198C  6E0E               	movwf	??_display^0,c
   792  00198E  0EFC               	movlw	252
   793  001990                     u3347:
   794  001990  2EE8               	decfsz	wreg,f,c
   795  001992  D7FE               	bra	u3347
   796  001994  2E0E               	decfsz	??_display^0,f,c
   797  001996  D7FC               	bra	u3347
   798  001998                     
   799                           ;newmain.c: 210:                         LATAbits.LA1=0;LATAbits.LA0=1;LATAbits.LA2=0;LA
      +                          TAbits.LA3=0;
   800  001998  9289               	bcf	137,1,c	;volatile
   801  00199A  8089               	bsf	137,0,c	;volatile
   802  00199C  9489               	bcf	137,2,c	;volatile
   803  00199E  9689               	bcf	137,3,c	;volatile
   804  0019A0                     
   805                           ;newmain.c: 211:                         LATD=value[num2];
   806  0019A0  0E01               	movlw	low _value
   807  0019A2  245F               	addwf	_num2^0,w,c
   808  0019A4  6EF6               	movwf	tblptrl,c
   809  0019A6  0E06               	movlw	high _value
   810  0019A8  2060               	addwfc	(_num2+1)^0,w,c
   811  0019AA  6EF7               	movwf	tblptrh,c
   812  0019AC                     	if	0	;There are less than 3 active tblptr bytes
   813  0019AC                     	endif
   814  0019AC  0008               	tblrd		*
   815  0019AE  CFF5 FF8C          	movff	tablat,3980	;volatile
   816                           
   817                           ;newmain.c: 212:                         _delay((unsigned long)((5)*(8000000/4000.0)));
   818  0019B2  0E0D               	movlw	13
   819  0019B4  6E0E               	movwf	??_display^0,c
   820  0019B6  0EFC               	movlw	252
   821  0019B8                     u3357:
   822  0019B8  2EE8               	decfsz	wreg,f,c
   823  0019BA  D7FE               	bra	u3357
   824  0019BC  2E0E               	decfsz	??_display^0,f,c
   825  0019BE  D7FC               	bra	u3357
   826  0019C0                     
   827                           ;newmain.c: 214:                         LATAbits.LA1=0;LATAbits.LA0=0;LATAbits.LA2=0;LA
      +                          TAbits.LA3=1;
   828  0019C0  9289               	bcf	137,1,c	;volatile
   829  0019C2  9089               	bcf	137,0,c	;volatile
   830  0019C4  9489               	bcf	137,2,c	;volatile
   831  0019C6  8689               	bsf	137,3,c	;volatile
   832  0019C8                     
   833                           ;newmain.c: 215:                         LATD=value[num3];
   834  0019C8  0E01               	movlw	low _value
   835  0019CA  245D               	addwf	_num3^0,w,c
   836  0019CC  6EF6               	movwf	tblptrl,c
   837  0019CE  0E06               	movlw	high _value
   838  0019D0  205E               	addwfc	(_num3+1)^0,w,c
   839  0019D2  6EF7               	movwf	tblptrh,c
   840  0019D4                     	if	0	;There are less than 3 active tblptr bytes
   841  0019D4                     	endif
   842  0019D4  0008               	tblrd		*
   843  0019D6  CFF5 FF8C          	movff	tablat,3980	;volatile
   844  0019DA                     
   845                           ;newmain.c: 216:                         _delay((unsigned long)((5)*(8000000/4000.0)));
   846  0019DA  0E0D               	movlw	13
   847  0019DC  6E0E               	movwf	??_display^0,c
   848  0019DE  0EFC               	movlw	252
   849  0019E0                     u3367:
   850  0019E0  2EE8               	decfsz	wreg,f,c
   851  0019E2  D7FE               	bra	u3367
   852  0019E4  2E0E               	decfsz	??_display^0,f,c
   853  0019E6  D7FC               	bra	u3367
   854  0019E8                     
   855                           ;newmain.c: 218:                         LATAbits.LA1=0;LATAbits.LA0=0;LATAbits.LA2=1;LA
      +                          TAbits.LA3=0;
   856  0019E8  9289               	bcf	137,1,c	;volatile
   857  0019EA  9089               	bcf	137,0,c	;volatile
   858  0019EC  8489               	bsf	137,2,c	;volatile
   859  0019EE  9689               	bcf	137,3,c	;volatile
   860                           
   861                           ;newmain.c: 219:                         LATD=value[num4];
   862  0019F0  0E01               	movlw	low _value
   863  0019F2  245B               	addwf	_num4^0,w,c
   864  0019F4  6EF6               	movwf	tblptrl,c
   865  0019F6  0E06               	movlw	high _value
   866  0019F8  205C               	addwfc	(_num4+1)^0,w,c
   867  0019FA  6EF7               	movwf	tblptrh,c
   868  0019FC                     	if	0	;There are less than 3 active tblptr bytes
   869  0019FC                     	endif
   870  0019FC  0008               	tblrd		*
   871  0019FE  CFF5 FF8C          	movff	tablat,3980	;volatile
   872  001A02                     
   873                           ;newmain.c: 220:                         _delay((unsigned long)((5)*(8000000/4000.0)));
   874  001A02  0E0D               	movlw	13
   875  001A04  6E0E               	movwf	??_display^0,c
   876  001A06  0EFC               	movlw	252
   877  001A08                     u3377:
   878  001A08  2EE8               	decfsz	wreg,f,c
   879  001A0A  D7FE               	bra	u3377
   880  001A0C  2E0E               	decfsz	??_display^0,f,c
   881  001A0E  D7FC               	bra	u3377
   882  001A10                     
   883                           ;newmain.c: 221:   }
   884  001A10  4A6B               	infsnz	_i^0,f,c
   885  001A12  2A6C               	incf	(_i+1)^0,f,c
   886  001A14  EFAB  F00C         	goto	l1475
   887  001A18                     l109:
   888  001A18  0012               	return		;funcret
   889  001A1A                     __end_of_display:
   890                           	opt callstack 0
   891                           
   892 ;; *************** function _delay *****************
   893 ;; Defined at:
   894 ;;		line 86 in file "newmain.c"
   895 ;; Parameters:    Size  Location     Type
   896 ;;  val             2   13[COMRAM] unsigned int 
   897 ;; Auto vars:     Size  Location     Type
   898 ;;  j               2   17[COMRAM] unsigned int 
   899 ;;  i               2   15[COMRAM] unsigned int 
   900 ;; Return value:  Size  Location     Type
   901 ;;                  1    wreg      void 
   902 ;; Registers used:
   903 ;;		wreg, status,2, status,0
   904 ;; Tracked objects:
   905 ;;		On entry : 0/0
   906 ;;		On exit  : 0/0
   907 ;;		Unchanged: 0/0
   908 ;; Data sizes:     COMRAM   BANK0   BANK1   BANK2   BANK3   BANK4   BANK5
   909 ;;      Params:         2       0       0       0       0       0       0
   910 ;;      Locals:         4       0       0       0       0       0       0
   911 ;;      Temps:          0       0       0       0       0       0       0
   912 ;;      Totals:         6       0       0       0       0       0       0
   913 ;;Total ram usage:        6 bytes
   914 ;; Hardware stack levels used:    1
   915 ;; Hardware stack levels required when called:    3
   916 ;; This function calls:
   917 ;;		Nothing
   918 ;; This function is called by:
   919 ;;		_main
   920 ;; This function uses a non-reentrant model
   921 ;;
   922                           
   923                           	psect	text2
   924  001CFC                     __ptext2:
   925                           	opt callstack 0
   926  001CFC                     _delay:
   927                           	opt callstack 27
   928  001CFC                     
   929                           ;newmain.c: 86: void delay(unsigned int val);newmain.c: 87: {;newmain.c: 88:      unsign
      +                          ed int i,j;;newmain.c: 89:         for(i=0;i<val;i++)
   930  001CFC  0E00               	movlw	0
   931  001CFE  6E11               	movwf	(delay@i+1)^0,c
   932  001D00  0E00               	movlw	0
   933  001D02  6E10               	movwf	delay@i^0,c
   934  001D04  EF97  F00E         	goto	l2345
   935  001D08                     l2333:
   936                           
   937                           ;newmain.c: 90:             for(j=0;j<10;j++);
   938  001D08  0E00               	movlw	0
   939  001D0A  6E13               	movwf	(delay@j+1)^0,c
   940  001D0C  0E00               	movlw	0
   941  001D0E  6E12               	movwf	delay@j^0,c
   942  001D10                     l2339:
   943  001D10  4A12               	infsnz	delay@j^0,f,c
   944  001D12  2A13               	incf	(delay@j+1)^0,f,c
   945  001D14  5013               	movf	(delay@j+1)^0,w,c
   946  001D16  E109               	bnz	u2290
   947  001D18  0E0A               	movlw	10
   948  001D1A  5C12               	subwf	delay@j^0,w,c
   949  001D1C  A0D8               	btfss	status,0,c
   950  001D1E  EF93  F00E         	goto	u2291
   951  001D22  EF95  F00E         	goto	u2290
   952  001D26                     u2291:
   953  001D26  EF88  F00E         	goto	l2339
   954  001D2A                     u2290:
   955  001D2A  4A10               	infsnz	delay@i^0,f,c
   956  001D2C  2A11               	incf	(delay@i+1)^0,f,c
   957  001D2E                     l2345:
   958  001D2E  500E               	movf	delay@val^0,w,c
   959  001D30  5C10               	subwf	delay@i^0,w,c
   960  001D32  500F               	movf	(delay@val+1)^0,w,c
   961  001D34  5811               	subwfb	(delay@i+1)^0,w,c
   962  001D36  A0D8               	btfss	status,0,c
   963  001D38  EFA0  F00E         	goto	u2301
   964  001D3C  EFA2  F00E         	goto	u2300
   965  001D40                     u2301:
   966  001D40  EF84  F00E         	goto	l2333
   967  001D44                     u2300:
   968  001D44  0012               	return		;funcret
   969  001D46                     __end_of_delay:
   970                           	opt callstack 0
   971                           
   972 ;; *************** function _count_digit *****************
   973 ;; Defined at:
   974 ;;		line 182 in file "newmain.c"
   975 ;; Parameters:    Size  Location     Type
   976 ;;		None
   977 ;; Auto vars:     Size  Location     Type
   978 ;;		None
   979 ;; Return value:  Size  Location     Type
   980 ;;                  1    wreg      void 
   981 ;; Registers used:
   982 ;;		wreg, status,2, status,0, cstack
   983 ;; Tracked objects:
   984 ;;		On entry : 0/0
   985 ;;		On exit  : 0/0
   986 ;;		Unchanged: 0/0
   987 ;; Data sizes:     COMRAM   BANK0   BANK1   BANK2   BANK3   BANK4   BANK5
   988 ;;      Params:         0       0       0       0       0       0       0
   989 ;;      Locals:         0       0       0       0       0       0       0
   990 ;;      Temps:          0       0       0       0       0       0       0
   991 ;;      Totals:         0       0       0       0       0       0       0
   992 ;;Total ram usage:        0 bytes
   993 ;; Hardware stack levels used:    1
   994 ;; Hardware stack levels required when called:    4
   995 ;; This function calls:
   996 ;;		___lwdiv
   997 ;;		___lwmod
   998 ;; This function is called by:
   999 ;;		_main
  1000 ;; This function uses a non-reentrant model
  1001 ;;
  1002                           
  1003                           	psect	text3
  1004  00175A                     __ptext3:
  1005                           	opt callstack 0
  1006  00175A                     _count_digit:
  1007                           	opt callstack 26
  1008  00175A                     
  1009                           ;newmain.c: 183:         num0= count;
  1010  00175A  C065  F063         	movff	_count,_num0
  1011  00175E  C066  F064         	movff	_count+1,_num0+1
  1012  001762                     
  1013                           ;newmain.c: 184:         num1=num0%10;
  1014  001762  C063  F00E         	movff	_num0,___lwmod@dividend
  1015  001766  C064  F00F         	movff	_num0+1,___lwmod@dividend+1
  1016  00176A  0E00               	movlw	0
  1017  00176C  6E11               	movwf	(___lwmod@divisor+1)^0,c
  1018  00176E  0E0A               	movlw	10
  1019  001770  6E10               	movwf	___lwmod@divisor^0,c
  1020  001772  EC1A  F00E         	call	___lwmod	;wreg free
  1021  001776  C00E  F061         	movff	?___lwmod,_num1
  1022  00177A  C00F  F062         	movff	?___lwmod+1,_num1+1
  1023  00177E                     
  1024                           ;newmain.c: 185:   num0=num0-num1;
  1025  00177E  5061               	movf	_num1^0,w,c
  1026  001780  5C63               	subwf	_num0^0,w,c
  1027  001782  6E63               	movwf	_num0^0,c
  1028  001784  5062               	movf	(_num1+1)^0,w,c
  1029  001786  5864               	subwfb	(_num0+1)^0,w,c
  1030  001788  6E64               	movwf	(_num0+1)^0,c
  1031  00178A                     
  1032                           ;newmain.c: 186:   num0=num0/10;
  1033  00178A  C063  F00E         	movff	_num0,___lwdiv@dividend
  1034  00178E  C064  F00F         	movff	_num0+1,___lwdiv@dividend+1
  1035  001792  0E00               	movlw	0
  1036  001794  6E11               	movwf	(___lwdiv@divisor+1)^0,c
  1037  001796  0E0A               	movlw	10
  1038  001798  6E10               	movwf	___lwdiv@divisor^0,c
  1039  00179A  EC73  F00D         	call	___lwdiv	;wreg free
  1040  00179E  C00E  F063         	movff	?___lwdiv,_num0
  1041  0017A2  C00F  F064         	movff	?___lwdiv+1,_num0+1
  1042  0017A6                     
  1043                           ;newmain.c: 188:   num2=num0%10;
  1044  0017A6  C063  F00E         	movff	_num0,___lwmod@dividend
  1045  0017AA  C064  F00F         	movff	_num0+1,___lwmod@dividend+1
  1046  0017AE  0E00               	movlw	0
  1047  0017B0  6E11               	movwf	(___lwmod@divisor+1)^0,c
  1048  0017B2  0E0A               	movlw	10
  1049  0017B4  6E10               	movwf	___lwmod@divisor^0,c
  1050  0017B6  EC1A  F00E         	call	___lwmod	;wreg free
  1051  0017BA  C00E  F05F         	movff	?___lwmod,_num2
  1052  0017BE  C00F  F060         	movff	?___lwmod+1,_num2+1
  1053  0017C2                     
  1054                           ;newmain.c: 190:         num0 = time;
  1055  0017C2  C059  F063         	movff	_time,_num0
  1056  0017C6  C05A  F064         	movff	_time+1,_num0+1
  1057  0017CA                     
  1058                           ;newmain.c: 191:   num3=num0%10;
  1059  0017CA  C063  F00E         	movff	_num0,___lwmod@dividend
  1060  0017CE  C064  F00F         	movff	_num0+1,___lwmod@dividend+1
  1061  0017D2  0E00               	movlw	0
  1062  0017D4  6E11               	movwf	(___lwmod@divisor+1)^0,c
  1063  0017D6  0E0A               	movlw	10
  1064  0017D8  6E10               	movwf	___lwmod@divisor^0,c
  1065  0017DA  EC1A  F00E         	call	___lwmod	;wreg free
  1066  0017DE  C00E  F05D         	movff	?___lwmod,_num3
  1067  0017E2  C00F  F05E         	movff	?___lwmod+1,_num3+1
  1068                           
  1069                           ;newmain.c: 192:   num0=num0-num3;
  1070  0017E6  505D               	movf	_num3^0,w,c
  1071  0017E8  5C63               	subwf	_num0^0,w,c
  1072  0017EA  6E63               	movwf	_num0^0,c
  1073  0017EC  505E               	movf	(_num3+1)^0,w,c
  1074  0017EE  5864               	subwfb	(_num0+1)^0,w,c
  1075  0017F0  6E64               	movwf	(_num0+1)^0,c
  1076  0017F2                     
  1077                           ;newmain.c: 193:   num0=num0/10;
  1078  0017F2  C063  F00E         	movff	_num0,___lwdiv@dividend
  1079  0017F6  C064  F00F         	movff	_num0+1,___lwdiv@dividend+1
  1080  0017FA  0E00               	movlw	0
  1081  0017FC  6E11               	movwf	(___lwdiv@divisor+1)^0,c
  1082  0017FE  0E0A               	movlw	10
  1083  001800  6E10               	movwf	___lwdiv@divisor^0,c
  1084  001802  EC73  F00D         	call	___lwdiv	;wreg free
  1085  001806  C00E  F063         	movff	?___lwdiv,_num0
  1086  00180A  C00F  F064         	movff	?___lwdiv+1,_num0+1
  1087  00180E                     
  1088                           ;newmain.c: 195:   num4=num0%10;
  1089  00180E  C063  F00E         	movff	_num0,___lwmod@dividend
  1090  001812  C064  F00F         	movff	_num0+1,___lwmod@dividend+1
  1091  001816  0E00               	movlw	0
  1092  001818  6E11               	movwf	(___lwmod@divisor+1)^0,c
  1093  00181A  0E0A               	movlw	10
  1094  00181C  6E10               	movwf	___lwmod@divisor^0,c
  1095  00181E  EC1A  F00E         	call	___lwmod	;wreg free
  1096  001822  C00E  F05B         	movff	?___lwmod,_num4
  1097  001826  C00F  F05C         	movff	?___lwmod+1,_num4+1
  1098                           
  1099                           ;newmain.c: 196:   num0=num0-num4;
  1100  00182A  505B               	movf	_num4^0,w,c
  1101  00182C  5C63               	subwf	_num0^0,w,c
  1102  00182E  6E63               	movwf	_num0^0,c
  1103  001830  505C               	movf	(_num4+1)^0,w,c
  1104  001832  5864               	subwfb	(_num0+1)^0,w,c
  1105  001834  6E64               	movwf	(_num0+1)^0,c
  1106  001836                     
  1107                           ;newmain.c: 197:   num0=num0/10;
  1108  001836  C063  F00E         	movff	_num0,___lwdiv@dividend
  1109  00183A  C064  F00F         	movff	_num0+1,___lwdiv@dividend+1
  1110  00183E  0E00               	movlw	0
  1111  001840  6E11               	movwf	(___lwdiv@divisor+1)^0,c
  1112  001842  0E0A               	movlw	10
  1113  001844  6E10               	movwf	___lwdiv@divisor^0,c
  1114  001846  EC73  F00D         	call	___lwdiv	;wreg free
  1115  00184A  C00E  F063         	movff	?___lwdiv,_num0
  1116  00184E  C00F  F064         	movff	?___lwdiv+1,_num0+1
  1117  001852  0012               	return		;funcret
  1118  001854                     __end_of_count_digit:
  1119                           	opt callstack 0
  1120                           
  1121 ;; *************** function ___lwmod *****************
  1122 ;; Defined at:
  1123 ;;		line 7 in file "C:\Program Files (x86)\Microchip\xc8\v2.10\pic\sources\c99\common\lwmod.c"
  1124 ;; Parameters:    Size  Location     Type
  1125 ;;  dividend        2   13[COMRAM] unsigned int 
  1126 ;;  divisor         2   15[COMRAM] unsigned int 
  1127 ;; Auto vars:     Size  Location     Type
  1128 ;;  counter         1   17[COMRAM] unsigned char 
  1129 ;; Return value:  Size  Location     Type
  1130 ;;                  2   13[COMRAM] unsigned int 
  1131 ;; Registers used:
  1132 ;;		wreg, status,2, status,0
  1133 ;; Tracked objects:
  1134 ;;		On entry : 0/0
  1135 ;;		On exit  : 0/0
  1136 ;;		Unchanged: 0/0
  1137 ;; Data sizes:     COMRAM   BANK0   BANK1   BANK2   BANK3   BANK4   BANK5
  1138 ;;      Params:         4       0       0       0       0       0       0
  1139 ;;      Locals:         1       0       0       0       0       0       0
  1140 ;;      Temps:          0       0       0       0       0       0       0
  1141 ;;      Totals:         5       0       0       0       0       0       0
  1142 ;;Total ram usage:        5 bytes
  1143 ;; Hardware stack levels used:    1
  1144 ;; Hardware stack levels required when called:    3
  1145 ;; This function calls:
  1146 ;;		Nothing
  1147 ;; This function is called by:
  1148 ;;		_count_digit
  1149 ;; This function uses a non-reentrant model
  1150 ;;
  1151                           
  1152                           	psect	text4
  1153  001C34                     __ptext4:
  1154                           	opt callstack 0
  1155  001C34                     ___lwmod:
  1156                           	opt callstack 26
  1157  001C34  5010               	movf	___lwmod@divisor^0,w,c
  1158  001C36  1011               	iorwf	(___lwmod@divisor+1)^0,w,c
  1159  001C38  B4D8               	btfsc	status,2,c
  1160  001C3A  EF21  F00E         	goto	u2101
  1161  001C3E  EF23  F00E         	goto	u2100
  1162  001C42                     u2101:
  1163  001C42  EF47  F00E         	goto	l621
  1164  001C46                     u2100:
  1165  001C46  0E01               	movlw	1
  1166  001C48  6E12               	movwf	___lwmod@counter^0,c
  1167  001C4A  EF2B  F00E         	goto	l2231
  1168  001C4E                     l2229:
  1169  001C4E  90D8               	bcf	status,0,c
  1170  001C50  3610               	rlcf	___lwmod@divisor^0,f,c
  1171  001C52  3611               	rlcf	(___lwmod@divisor+1)^0,f,c
  1172  001C54  2A12               	incf	___lwmod@counter^0,f,c
  1173  001C56                     l2231:
  1174  001C56  AE11               	btfss	(___lwmod@divisor+1)^0,7,c
  1175  001C58  EF30  F00E         	goto	u2111
  1176  001C5C  EF32  F00E         	goto	u2110
  1177  001C60                     u2111:
  1178  001C60  EF27  F00E         	goto	l2229
  1179  001C64                     u2110:
  1180  001C64                     l2233:
  1181  001C64  5010               	movf	___lwmod@divisor^0,w,c
  1182  001C66  5C0E               	subwf	___lwmod@dividend^0,w,c
  1183  001C68  5011               	movf	(___lwmod@divisor+1)^0,w,c
  1184  001C6A  580F               	subwfb	(___lwmod@dividend+1)^0,w,c
  1185  001C6C  A0D8               	btfss	status,0,c
  1186  001C6E  EF3B  F00E         	goto	u2121
  1187  001C72  EF3D  F00E         	goto	u2120
  1188  001C76                     u2121:
  1189  001C76  EF41  F00E         	goto	l2237
  1190  001C7A                     u2120:
  1191  001C7A  5010               	movf	___lwmod@divisor^0,w,c
  1192  001C7C  5E0E               	subwf	___lwmod@dividend^0,f,c
  1193  001C7E  5011               	movf	(___lwmod@divisor+1)^0,w,c
  1194  001C80  5A0F               	subwfb	(___lwmod@dividend+1)^0,f,c
  1195  001C82                     l2237:
  1196  001C82  90D8               	bcf	status,0,c
  1197  001C84  3211               	rrcf	(___lwmod@divisor+1)^0,f,c
  1198  001C86  3210               	rrcf	___lwmod@divisor^0,f,c
  1199  001C88  2E12               	decfsz	___lwmod@counter^0,f,c
  1200  001C8A  EF32  F00E         	goto	l2233
  1201  001C8E                     l621:
  1202  001C8E  C00E  F00E         	movff	___lwmod@dividend,?___lwmod
  1203  001C92  C00F  F00F         	movff	___lwmod@dividend+1,?___lwmod+1
  1204  001C96  0012               	return		;funcret
  1205  001C98                     __end_of___lwmod:
  1206                           	opt callstack 0
  1207                           
  1208 ;; *************** function ___lwdiv *****************
  1209 ;; Defined at:
  1210 ;;		line 7 in file "C:\Program Files (x86)\Microchip\xc8\v2.10\pic\sources\c99\common\lwdiv.c"
  1211 ;; Parameters:    Size  Location     Type
  1212 ;;  dividend        2   13[COMRAM] unsigned int 
  1213 ;;  divisor         2   15[COMRAM] unsigned int 
  1214 ;; Auto vars:     Size  Location     Type
  1215 ;;  quotient        2   17[COMRAM] unsigned int 
  1216 ;;  counter         1   19[COMRAM] unsigned char 
  1217 ;; Return value:  Size  Location     Type
  1218 ;;                  2   13[COMRAM] unsigned int 
  1219 ;; Registers used:
  1220 ;;		wreg, status,2, status,0
  1221 ;; Tracked objects:
  1222 ;;		On entry : 0/0
  1223 ;;		On exit  : 0/0
  1224 ;;		Unchanged: 0/0
  1225 ;; Data sizes:     COMRAM   BANK0   BANK1   BANK2   BANK3   BANK4   BANK5
  1226 ;;      Params:         4       0       0       0       0       0       0
  1227 ;;      Locals:         3       0       0       0       0       0       0
  1228 ;;      Temps:          0       0       0       0       0       0       0
  1229 ;;      Totals:         7       0       0       0       0       0       0
  1230 ;;Total ram usage:        7 bytes
  1231 ;; Hardware stack levels used:    1
  1232 ;; Hardware stack levels required when called:    3
  1233 ;; This function calls:
  1234 ;;		Nothing
  1235 ;; This function is called by:
  1236 ;;		_count_digit
  1237 ;; This function uses a non-reentrant model
  1238 ;;
  1239                           
  1240                           	psect	text5
  1241  001AE6                     __ptext5:
  1242                           	opt callstack 0
  1243  001AE6                     ___lwdiv:
  1244                           	opt callstack 26
  1245  001AE6  0E00               	movlw	0
  1246  001AE8  6E13               	movwf	(___lwdiv@quotient+1)^0,c
  1247  001AEA  0E00               	movlw	0
  1248  001AEC  6E12               	movwf	___lwdiv@quotient^0,c
  1249  001AEE  5010               	movf	___lwdiv@divisor^0,w,c
  1250  001AF0  1011               	iorwf	(___lwdiv@divisor+1)^0,w,c
  1251  001AF2  B4D8               	btfsc	status,2,c
  1252  001AF4  EF7E  F00D         	goto	u2071
  1253  001AF8  EF80  F00D         	goto	u2070
  1254  001AFC                     u2071:
  1255  001AFC  EFA8  F00D         	goto	l611
  1256  001B00                     u2070:
  1257  001B00  0E01               	movlw	1
  1258  001B02  6E14               	movwf	___lwdiv@counter^0,c
  1259  001B04  EF88  F00D         	goto	l2211
  1260  001B08                     l2209:
  1261  001B08  90D8               	bcf	status,0,c
  1262  001B0A  3610               	rlcf	___lwdiv@divisor^0,f,c
  1263  001B0C  3611               	rlcf	(___lwdiv@divisor+1)^0,f,c
  1264  001B0E  2A14               	incf	___lwdiv@counter^0,f,c
  1265  001B10                     l2211:
  1266  001B10  AE11               	btfss	(___lwdiv@divisor+1)^0,7,c
  1267  001B12  EF8D  F00D         	goto	u2081
  1268  001B16  EF8F  F00D         	goto	u2080
  1269  001B1A                     u2081:
  1270  001B1A  EF84  F00D         	goto	l2209
  1271  001B1E                     u2080:
  1272  001B1E                     l2213:
  1273  001B1E  90D8               	bcf	status,0,c
  1274  001B20  3612               	rlcf	___lwdiv@quotient^0,f,c
  1275  001B22  3613               	rlcf	(___lwdiv@quotient+1)^0,f,c
  1276  001B24  5010               	movf	___lwdiv@divisor^0,w,c
  1277  001B26  5C0E               	subwf	___lwdiv@dividend^0,w,c
  1278  001B28  5011               	movf	(___lwdiv@divisor+1)^0,w,c
  1279  001B2A  580F               	subwfb	(___lwdiv@dividend+1)^0,w,c
  1280  001B2C  A0D8               	btfss	status,0,c
  1281  001B2E  EF9B  F00D         	goto	u2091
  1282  001B32  EF9D  F00D         	goto	u2090
  1283  001B36                     u2091:
  1284  001B36  EFA2  F00D         	goto	l2221
  1285  001B3A                     u2090:
  1286  001B3A  5010               	movf	___lwdiv@divisor^0,w,c
  1287  001B3C  5E0E               	subwf	___lwdiv@dividend^0,f,c
  1288  001B3E  5011               	movf	(___lwdiv@divisor+1)^0,w,c
  1289  001B40  5A0F               	subwfb	(___lwdiv@dividend+1)^0,f,c
  1290  001B42  8012               	bsf	___lwdiv@quotient^0,0,c
  1291  001B44                     l2221:
  1292  001B44  90D8               	bcf	status,0,c
  1293  001B46  3211               	rrcf	(___lwdiv@divisor+1)^0,f,c
  1294  001B48  3210               	rrcf	___lwdiv@divisor^0,f,c
  1295  001B4A  2E14               	decfsz	___lwdiv@counter^0,f,c
  1296  001B4C  EF8F  F00D         	goto	l2213
  1297  001B50                     l611:
  1298  001B50  C012  F00E         	movff	___lwdiv@quotient,?___lwdiv
  1299  001B54  C013  F00F         	movff	___lwdiv@quotient+1,?___lwdiv+1
  1300  001B58  0012               	return		;funcret
  1301  001B5A                     __end_of___lwdiv:
  1302                           	opt callstack 0
  1303                           
  1304 ;; *************** function _SetDutyCycleTo *****************
  1305 ;; Defined at:
  1306 ;;		line 78 in file "newmain.c"
  1307 ;; Parameters:    Size  Location     Type
  1308 ;;  Duty_cycle      4   78[COMRAM] float 
  1309 ;;  Period          2   82[COMRAM] int 
  1310 ;; Auto vars:     Size  Location     Type
  1311 ;;  PWM10BitValu    2    4[BANK0 ] int 
  1312 ;; Return value:  Size  Location     Type
  1313 ;;                  1    wreg      void 
  1314 ;; Registers used:
  1315 ;;		wreg, status,2, status,0, prodl, prodh, cstack
  1316 ;; Tracked objects:
  1317 ;;		On entry : 0/0
  1318 ;;		On exit  : 0/0
  1319 ;;		Unchanged: 0/0
  1320 ;; Data sizes:     COMRAM   BANK0   BANK1   BANK2   BANK3   BANK4   BANK5
  1321 ;;      Params:         6       0       0       0       0       0       0
  1322 ;;      Locals:         0       6       0       0       0       0       0
  1323 ;;      Temps:          2       0       0       0       0       0       0
  1324 ;;      Totals:         8       6       0       0       0       0       0
  1325 ;;Total ram usage:       14 bytes
  1326 ;; Hardware stack levels used:    1
  1327 ;; Hardware stack levels required when called:    4
  1328 ;; This function calls:
  1329 ;;		___fladd
  1330 ;;		___fldiv
  1331 ;;		___flmul
  1332 ;;		___fltol
  1333 ;;		___xxtofl
  1334 ;; This function is called by:
  1335 ;;		_main
  1336 ;; This function uses a non-reentrant model
  1337 ;;
  1338                           
  1339                           	psect	text6
  1340  00165C                     __ptext6:
  1341                           	opt callstack 0
  1342  00165C                     _SetDutyCycleTo:
  1343                           	opt callstack 26
  1344  00165C                     
  1345                           ;newmain.c: 78: void SetDutyCycleTo(float Duty_cycle, int Period);newmain.c: 79: {;newma
      +                          in.c: 80:     int PWM10BitValue;;newmain.c: 81:     PWM10BitValue = 4.0 * ((float)Period
      +                           + 1.0) * (Duty_cycle/100.0);
  1346  00165C  0E00               	movlw	0
  1347  00165E  6E30               	movwf	___flmul@a^0,c
  1348  001660  0E00               	movlw	0
  1349  001662  6E31               	movwf	(___flmul@a+1)^0,c
  1350  001664  0E80               	movlw	128
  1351  001666  6E32               	movwf	(___flmul@a+2)^0,c
  1352  001668  0E40               	movlw	64
  1353  00166A  6E33               	movwf	(___flmul@a+3)^0,c
  1354  00166C  0E00               	movlw	0
  1355  00166E  6E20               	movwf	___fladd@a^0,c
  1356  001670  0E00               	movlw	0
  1357  001672  6E21               	movwf	(___fladd@a+1)^0,c
  1358  001674  0E80               	movlw	128
  1359  001676  6E22               	movwf	(___fladd@a+2)^0,c
  1360  001678  0E3F               	movlw	63
  1361  00167A  6E23               	movwf	(___fladd@a+3)^0,c
  1362  00167C  C053  F00E         	movff	SetDutyCycleTo@Period,___xxtofl@val
  1363  001680  C054  F00F         	movff	SetDutyCycleTo@Period+1,___xxtofl@val+1
  1364  001684  0E00               	movlw	0
  1365  001686  BE0F               	btfsc	(___xxtofl@val+1)^0,7,c
  1366  001688  0EFF               	movlw	-1
  1367  00168A  6E10               	movwf	(___xxtofl@val+2)^0,c
  1368  00168C  6E11               	movwf	(___xxtofl@val+3)^0,c
  1369  00168E  0E01               	movlw	1
  1370  001690  EC48  F009         	call	___xxtofl
  1371  001694  C00E  F01C         	movff	?___xxtofl,___fladd@b
  1372  001698  C00F  F01D         	movff	?___xxtofl+1,___fladd@b+1
  1373  00169C  C010  F01E         	movff	?___xxtofl+2,___fladd@b+2
  1374  0016A0  C011  F01F         	movff	?___xxtofl+3,___fladd@b+3
  1375  0016A4  EC06  F003         	call	___fladd	;wreg free
  1376  0016A8  C01C  F02C         	movff	?___fladd,___flmul@b
  1377  0016AC  C01D  F02D         	movff	?___fladd+1,___flmul@b+1
  1378  0016B0  C01E  F02E         	movff	?___fladd+2,___flmul@b+2
  1379  0016B4  C01F  F02F         	movff	?___fladd+3,___flmul@b+3
  1380  0016B8  EC66  F005         	call	___flmul	;wreg free
  1381  0016BC  C02C  F080         	movff	?___flmul,_SetDutyCycleTo$1340
  1382  0016C0  C02D  F081         	movff	?___flmul+1,_SetDutyCycleTo$1340+1
  1383  0016C4  C02E  F082         	movff	?___flmul+2,_SetDutyCycleTo$1340+2
  1384  0016C8  C02F  F083         	movff	?___flmul+3,_SetDutyCycleTo$1340+3
  1385                           
  1386                           ;newmain.c: 78: void SetDutyCycleTo(float Duty_cycle, int Period);newmain.c: 79: {;newma
      +                          in.c: 80:     int PWM10BitValue;;newmain.c: 81:     PWM10BitValue = 4.0 * ((float)Period
      +                           + 1.0) * (Duty_cycle/100.0);
  1387  0016CC  0E00               	movlw	0
  1388  0016CE  6E12               	movwf	___fldiv@a^0,c
  1389  0016D0  0E00               	movlw	0
  1390  0016D2  6E13               	movwf	(___fldiv@a+1)^0,c
  1391  0016D4  0EC8               	movlw	200
  1392  0016D6  6E14               	movwf	(___fldiv@a+2)^0,c
  1393  0016D8  0E42               	movlw	66
  1394  0016DA  6E15               	movwf	(___fldiv@a+3)^0,c
  1395  0016DC  C04F  F00E         	movff	SetDutyCycleTo@Duty_cycle,___fldiv@b
  1396  0016E0  C050  F00F         	movff	SetDutyCycleTo@Duty_cycle+1,___fldiv@b+1
  1397  0016E4  C051  F010         	movff	SetDutyCycleTo@Duty_cycle+2,___fldiv@b+2
  1398  0016E8  C052  F011         	movff	SetDutyCycleTo@Duty_cycle+3,___fldiv@b+3
  1399  0016EC  EC7B  F007         	call	___fldiv	;wreg free
  1400  0016F0  C00E  F030         	movff	?___fldiv,___flmul@a
  1401  0016F4  C00F  F031         	movff	?___fldiv+1,___flmul@a+1
  1402  0016F8  C010  F032         	movff	?___fldiv+2,___flmul@a+2
  1403  0016FC  C011  F033         	movff	?___fldiv+3,___flmul@a+3
  1404  001700  C080  F02C         	movff	_SetDutyCycleTo$1340,___flmul@b
  1405  001704  C081  F02D         	movff	_SetDutyCycleTo$1340+1,___flmul@b+1
  1406  001708  C082  F02E         	movff	_SetDutyCycleTo$1340+2,___flmul@b+2
  1407  00170C  C083  F02F         	movff	_SetDutyCycleTo$1340+3,___flmul@b+3
  1408  001710  EC66  F005         	call	___flmul	;wreg free
  1409  001714  C02C  F045         	movff	?___flmul,___fltol@f1
  1410  001718  C02D  F046         	movff	?___flmul+1,___fltol@f1+1
  1411  00171C  C02E  F047         	movff	?___flmul+2,___fltol@f1+2
  1412  001720  C02F  F048         	movff	?___flmul+3,___fltol@f1+3
  1413  001724  ECAB  F00A         	call	___fltol	;wreg free
  1414  001728  C045  F084         	movff	?___fltol,SetDutyCycleTo@PWM10BitValue
  1415  00172C  C046  F085         	movff	?___fltol+1,SetDutyCycleTo@PWM10BitValue+1
  1416  001730                     
  1417                           ;newmain.c: 82:     CCPR1L = (PWM10BitValue >> 2);
  1418  001730  C084  F055         	movff	SetDutyCycleTo@PWM10BitValue,??_SetDutyCycleTo
  1419  001734  C085  F056         	movff	SetDutyCycleTo@PWM10BitValue+1,??_SetDutyCycleTo+1
  1420  001738  3456               	rlcf	(??_SetDutyCycleTo+1)^0,w,c
  1421  00173A  3256               	rrcf	(??_SetDutyCycleTo+1)^0,f,c
  1422  00173C  3255               	rrcf	??_SetDutyCycleTo^0,f,c
  1423  00173E  3456               	rlcf	(??_SetDutyCycleTo+1)^0,w,c
  1424  001740  3256               	rrcf	(??_SetDutyCycleTo+1)^0,f,c
  1425  001742  3255               	rrcf	??_SetDutyCycleTo^0,f,c
  1426  001744  5055               	movf	??_SetDutyCycleTo^0,w,c
  1427  001746  6EBE               	movwf	190,c	;volatile
  1428  001748                     
  1429                           ;newmain.c: 83:     CCP1CON = ((PWM10BitValue & 0x03) << 4) | 0x0C;
  1430  001748  C084  F055         	movff	SetDutyCycleTo@PWM10BitValue,??_SetDutyCycleTo
  1431  00174C  0E03               	movlw	3
  1432  00174E  1655               	andwf	??_SetDutyCycleTo^0,f,c
  1433  001750  3855               	swapf	??_SetDutyCycleTo^0,w,c
  1434  001752  0BF0               	andlw	240
  1435  001754  090C               	iorlw	12
  1436  001756  6EBD               	movwf	189,c	;volatile
  1437  001758  0012               	return		;funcret
  1438  00175A                     __end_of_SetDutyCycleTo:
  1439                           	opt callstack 0
  1440                           
  1441 ;; *************** function ___xxtofl *****************
  1442 ;; Defined at:
  1443 ;;		line 10 in file "C:\Program Files (x86)\Microchip\xc8\v2.10\pic\sources\c99\common\xxtofl.c"
  1444 ;; Parameters:    Size  Location     Type
  1445 ;;  sign            1    wreg     unsigned char 
  1446 ;;  val             4   13[COMRAM] long 
  1447 ;; Auto vars:     Size  Location     Type
  1448 ;;  sign            1   21[COMRAM] unsigned char 
  1449 ;;  arg             4   23[COMRAM] unsigned long 
  1450 ;;  exp             1   22[COMRAM] unsigned char 
  1451 ;; Return value:  Size  Location     Type
  1452 ;;                  4   13[COMRAM] unsigned char 
  1453 ;; Registers used:
  1454 ;;		wreg, status,2, status,0
  1455 ;; Tracked objects:
  1456 ;;		On entry : 0/0
  1457 ;;		On exit  : 0/0
  1458 ;;		Unchanged: 0/0
  1459 ;; Data sizes:     COMRAM   BANK0   BANK1   BANK2   BANK3   BANK4   BANK5
  1460 ;;      Params:         4       0       0       0       0       0       0
  1461 ;;      Locals:         6       0       0       0       0       0       0
  1462 ;;      Temps:          4       0       0       0       0       0       0
  1463 ;;      Totals:        14       0       0       0       0       0       0
  1464 ;;Total ram usage:       14 bytes
  1465 ;; Hardware stack levels used:    1
  1466 ;; Hardware stack levels required when called:    3
  1467 ;; This function calls:
  1468 ;;		Nothing
  1469 ;; This function is called by:
  1470 ;;		_SetDutyCycleTo
  1471 ;; This function uses a non-reentrant model
  1472 ;;
  1473                           
  1474                           	psect	text7
  1475  001290                     __ptext7:
  1476                           	opt callstack 0
  1477  001290                     ___xxtofl:
  1478                           	opt callstack 26
  1479                           
  1480                           ;incstack = 0
  1481                           ;___xxtofl@sign stored from wreg
  1482  001290  6E16               	movwf	___xxtofl@sign^0,c
  1483  001292  5016               	movf	___xxtofl@sign^0,w,c
  1484  001294  B4D8               	btfsc	status,2,c
  1485  001296  EF4F  F009         	goto	u3221
  1486  00129A  EF51  F009         	goto	u3220
  1487  00129E                     u3221:
  1488  00129E  EF73  F009         	goto	l775
  1489  0012A2                     u3220:
  1490  0012A2  BE11               	btfsc	(___xxtofl@val+3)^0,7,c
  1491  0012A4  EF58  F009         	goto	u3230
  1492  0012A8  EF56  F009         	goto	u3231
  1493  0012AC                     u3231:
  1494  0012AC  EF73  F009         	goto	l775
  1495  0012B0                     u3230:
  1496  0012B0  C00E  F012         	movff	___xxtofl@val,??___xxtofl
  1497  0012B4  C00F  F013         	movff	___xxtofl@val+1,??___xxtofl+1
  1498  0012B8  C010  F014         	movff	___xxtofl@val+2,??___xxtofl+2
  1499  0012BC  C011  F015         	movff	___xxtofl@val+3,??___xxtofl+3
  1500  0012C0  1E12               	comf	??___xxtofl^0,f,c
  1501  0012C2  1E13               	comf	(??___xxtofl+1)^0,f,c
  1502  0012C4  1E14               	comf	(??___xxtofl+2)^0,f,c
  1503  0012C6  1E15               	comf	(??___xxtofl+3)^0,f,c
  1504  0012C8  2A12               	incf	??___xxtofl^0,f,c
  1505  0012CA  0E00               	movlw	0
  1506  0012CC  2213               	addwfc	(??___xxtofl+1)^0,f,c
  1507  0012CE  2214               	addwfc	(??___xxtofl+2)^0,f,c
  1508  0012D0  2215               	addwfc	(??___xxtofl+3)^0,f,c
  1509  0012D2  C012  F018         	movff	??___xxtofl,___xxtofl@arg
  1510  0012D6  C013  F019         	movff	??___xxtofl+1,___xxtofl@arg+1
  1511  0012DA  C014  F01A         	movff	??___xxtofl+2,___xxtofl@arg+2
  1512  0012DE  C015  F01B         	movff	??___xxtofl+3,___xxtofl@arg+3
  1513  0012E2  EF7B  F009         	goto	l2999
  1514  0012E6                     l775:
  1515  0012E6  C00E  F018         	movff	___xxtofl@val,___xxtofl@arg
  1516  0012EA  C00F  F019         	movff	___xxtofl@val+1,___xxtofl@arg+1
  1517  0012EE  C010  F01A         	movff	___xxtofl@val+2,___xxtofl@arg+2
  1518  0012F2  C011  F01B         	movff	___xxtofl@val+3,___xxtofl@arg+3
  1519  0012F6                     l2999:
  1520  0012F6  500E               	movf	___xxtofl@val^0,w,c
  1521  0012F8  100F               	iorwf	(___xxtofl@val+1)^0,w,c
  1522  0012FA  1010               	iorwf	(___xxtofl@val+2)^0,w,c
  1523  0012FC  1011               	iorwf	(___xxtofl@val+3)^0,w,c
  1524  0012FE  A4D8               	btfss	status,2,c
  1525  001300  EF84  F009         	goto	u3241
  1526  001304  EF86  F009         	goto	u3240
  1527  001308                     u3241:
  1528  001308  EF90  F009         	goto	l3005
  1529  00130C                     u3240:
  1530  00130C  0E00               	movlw	0
  1531  00130E  6E0E               	movwf	?___xxtofl^0,c
  1532  001310  0E00               	movlw	0
  1533  001312  6E0F               	movwf	(?___xxtofl+1)^0,c
  1534  001314  0E00               	movlw	0
  1535  001316  6E10               	movwf	(?___xxtofl+2)^0,c
  1536  001318  0E00               	movlw	0
  1537  00131A  6E11               	movwf	(?___xxtofl+3)^0,c
  1538  00131C  EF21  F00A         	goto	l778
  1539  001320                     l3005:
  1540  001320  0E96               	movlw	150
  1541  001322  6E17               	movwf	___xxtofl@exp^0,c
  1542  001324  EF9A  F009         	goto	l3009
  1543  001328                     l3007:
  1544  001328  2A17               	incf	___xxtofl@exp^0,f,c
  1545  00132A  90D8               	bcf	status,0,c
  1546  00132C  321B               	rrcf	(___xxtofl@arg+3)^0,f,c
  1547  00132E  321A               	rrcf	(___xxtofl@arg+2)^0,f,c
  1548  001330  3219               	rrcf	(___xxtofl@arg+1)^0,f,c
  1549  001332  3218               	rrcf	___xxtofl@arg^0,f,c
  1550  001334                     l3009:
  1551  001334  0E00               	movlw	0
  1552  001336  1418               	andwf	___xxtofl@arg^0,w,c
  1553  001338  6E12               	movwf	??___xxtofl^0,c
  1554  00133A  0E00               	movlw	0
  1555  00133C  1419               	andwf	(___xxtofl@arg+1)^0,w,c
  1556  00133E  6E13               	movwf	(??___xxtofl+1)^0,c
  1557  001340  0E00               	movlw	0
  1558  001342  141A               	andwf	(___xxtofl@arg+2)^0,w,c
  1559  001344  6E14               	movwf	(??___xxtofl+2)^0,c
  1560  001346  0EFE               	movlw	254
  1561  001348  141B               	andwf	(___xxtofl@arg+3)^0,w,c
  1562  00134A  6E15               	movwf	(??___xxtofl+3)^0,c
  1563  00134C  5012               	movf	??___xxtofl^0,w,c
  1564  00134E  1013               	iorwf	(??___xxtofl+1)^0,w,c
  1565  001350  1014               	iorwf	(??___xxtofl+2)^0,w,c
  1566  001352  1015               	iorwf	(??___xxtofl+3)^0,w,c
  1567  001354  A4D8               	btfss	status,2,c
  1568  001356  EFAF  F009         	goto	u3251
  1569  00135A  EFB1  F009         	goto	u3250
  1570  00135E                     u3251:
  1571  00135E  EF94  F009         	goto	l3007
  1572  001362                     u3250:
  1573  001362  EFBF  F009         	goto	l782
  1574  001366                     l3011:
  1575  001366  2A17               	incf	___xxtofl@exp^0,f,c
  1576  001368  0E01               	movlw	1
  1577  00136A  2618               	addwf	___xxtofl@arg^0,f,c
  1578  00136C  0E00               	movlw	0
  1579  00136E  2219               	addwfc	(___xxtofl@arg+1)^0,f,c
  1580  001370  221A               	addwfc	(___xxtofl@arg+2)^0,f,c
  1581  001372  221B               	addwfc	(___xxtofl@arg+3)^0,f,c
  1582  001374  90D8               	bcf	status,0,c
  1583  001376  321B               	rrcf	(___xxtofl@arg+3)^0,f,c
  1584  001378  321A               	rrcf	(___xxtofl@arg+2)^0,f,c
  1585  00137A  3219               	rrcf	(___xxtofl@arg+1)^0,f,c
  1586  00137C  3218               	rrcf	___xxtofl@arg^0,f,c
  1587  00137E                     l782:
  1588  00137E  0E00               	movlw	0
  1589  001380  1418               	andwf	___xxtofl@arg^0,w,c
  1590  001382  6E12               	movwf	??___xxtofl^0,c
  1591  001384  0E00               	movlw	0
  1592  001386  1419               	andwf	(___xxtofl@arg+1)^0,w,c
  1593  001388  6E13               	movwf	(??___xxtofl+1)^0,c
  1594  00138A  0E00               	movlw	0
  1595  00138C  141A               	andwf	(___xxtofl@arg+2)^0,w,c
  1596  00138E  6E14               	movwf	(??___xxtofl+2)^0,c
  1597  001390  0EFF               	movlw	255
  1598  001392  141B               	andwf	(___xxtofl@arg+3)^0,w,c
  1599  001394  6E15               	movwf	(??___xxtofl+3)^0,c
  1600  001396  5012               	movf	??___xxtofl^0,w,c
  1601  001398  1013               	iorwf	(??___xxtofl+1)^0,w,c
  1602  00139A  1014               	iorwf	(??___xxtofl+2)^0,w,c
  1603  00139C  1015               	iorwf	(??___xxtofl+3)^0,w,c
  1604  00139E  A4D8               	btfss	status,2,c
  1605  0013A0  EFD4  F009         	goto	u3261
  1606  0013A4  EFD6  F009         	goto	u3260
  1607  0013A8                     u3261:
  1608  0013A8  EFB3  F009         	goto	l3011
  1609  0013AC                     u3260:
  1610  0013AC  EFDE  F009         	goto	l3019
  1611  0013B0                     l3017:
  1612  0013B0  0617               	decf	___xxtofl@exp^0,f,c
  1613  0013B2  90D8               	bcf	status,0,c
  1614  0013B4  3618               	rlcf	___xxtofl@arg^0,f,c
  1615  0013B6  3619               	rlcf	(___xxtofl@arg+1)^0,f,c
  1616  0013B8  361A               	rlcf	(___xxtofl@arg+2)^0,f,c
  1617  0013BA  361B               	rlcf	(___xxtofl@arg+3)^0,f,c
  1618  0013BC                     l3019:
  1619  0013BC  BE1A               	btfsc	(___xxtofl@arg+2)^0,7,c
  1620  0013BE  EFE3  F009         	goto	u3271
  1621  0013C2  EFE5  F009         	goto	u3270
  1622  0013C6                     u3271:
  1623  0013C6  EFED  F009         	goto	l789
  1624  0013CA                     u3270:
  1625  0013CA  0E02               	movlw	2
  1626  0013CC  6017               	cpfslt	___xxtofl@exp^0,c
  1627  0013CE  EFEB  F009         	goto	u3281
  1628  0013D2  EFED  F009         	goto	u3280
  1629  0013D6                     u3281:
  1630  0013D6  EFD8  F009         	goto	l3017
  1631  0013DA                     u3280:
  1632  0013DA                     l789:
  1633  0013DA  B017               	btfsc	___xxtofl@exp^0,0,c
  1634  0013DC  EFF2  F009         	goto	u3291
  1635  0013E0  EFF4  F009         	goto	u3290
  1636  0013E4                     u3291:
  1637  0013E4  EFF5  F009         	goto	l3025
  1638  0013E8                     u3290:
  1639  0013E8  9E1A               	bcf	(___xxtofl@arg+2)^0,7,c
  1640  0013EA                     l3025:
  1641  0013EA  90D8               	bcf	status,0,c
  1642  0013EC  3217               	rrcf	___xxtofl@exp^0,f,c
  1643  0013EE  C017  F012         	movff	___xxtofl@exp,??___xxtofl
  1644  0013F2  6A13               	clrf	(??___xxtofl+1)^0,c
  1645  0013F4  6A14               	clrf	(??___xxtofl+2)^0,c
  1646  0013F6  6A15               	clrf	(??___xxtofl+3)^0,c
  1647  0013F8  C012  F015         	movff	??___xxtofl,??___xxtofl+3
  1648  0013FC  6A14               	clrf	(??___xxtofl+2)^0,c
  1649  0013FE  6A13               	clrf	(??___xxtofl+1)^0,c
  1650  001400  6A12               	clrf	??___xxtofl^0,c
  1651  001402  5012               	movf	??___xxtofl^0,w,c
  1652  001404  1218               	iorwf	___xxtofl@arg^0,f,c
  1653  001406  5013               	movf	(??___xxtofl+1)^0,w,c
  1654  001408  1219               	iorwf	(___xxtofl@arg+1)^0,f,c
  1655  00140A  5014               	movf	(??___xxtofl+2)^0,w,c
  1656  00140C  121A               	iorwf	(___xxtofl@arg+2)^0,f,c
  1657  00140E  5015               	movf	(??___xxtofl+3)^0,w,c
  1658  001410  121B               	iorwf	(___xxtofl@arg+3)^0,f,c
  1659  001412  5016               	movf	___xxtofl@sign^0,w,c
  1660  001414  B4D8               	btfsc	status,2,c
  1661  001416  EF0F  F00A         	goto	u3301
  1662  00141A  EF11  F00A         	goto	u3300
  1663  00141E                     u3301:
  1664  00141E  EF19  F00A         	goto	l3035
  1665  001422                     u3300:
  1666  001422  BE11               	btfsc	(___xxtofl@val+3)^0,7,c
  1667  001424  EF18  F00A         	goto	u3310
  1668  001428  EF16  F00A         	goto	u3311
  1669  00142C                     u3311:
  1670  00142C  EF19  F00A         	goto	l3035
  1671  001430                     u3310:
  1672  001430  8E1B               	bsf	(___xxtofl@arg+3)^0,7,c
  1673  001432                     l3035:
  1674  001432  C018  F00E         	movff	___xxtofl@arg,?___xxtofl
  1675  001436  C019  F00F         	movff	___xxtofl@arg+1,?___xxtofl+1
  1676  00143A  C01A  F010         	movff	___xxtofl@arg+2,?___xxtofl+2
  1677  00143E  C01B  F011         	movff	___xxtofl@arg+3,?___xxtofl+3
  1678  001442                     l778:
  1679  001442  0012               	return		;funcret
  1680  001444                     __end_of___xxtofl:
  1681                           	opt callstack 0
  1682                           
  1683 ;; *************** function ___fltol *****************
  1684 ;; Defined at:
  1685 ;;		line 43 in file "C:\Program Files (x86)\Microchip\xc8\v2.10\pic\sources\c99\common\fltol.c"
  1686 ;; Parameters:    Size  Location     Type
  1687 ;;  f1              4   68[COMRAM] unsigned char 
  1688 ;; Auto vars:     Size  Location     Type
  1689 ;;  exp1            1   77[COMRAM] unsigned char 
  1690 ;;  sign1           1   76[COMRAM] unsigned char 
  1691 ;; Return value:  Size  Location     Type
  1692 ;;                  4   68[COMRAM] long 
  1693 ;; Registers used:
  1694 ;;		wreg, status,2, status,0
  1695 ;; Tracked objects:
  1696 ;;		On entry : 0/0
  1697 ;;		On exit  : 0/0
  1698 ;;		Unchanged: 0/0
  1699 ;; Data sizes:     COMRAM   BANK0   BANK1   BANK2   BANK3   BANK4   BANK5
  1700 ;;      Params:         4       0       0       0       0       0       0
  1701 ;;      Locals:         2       0       0       0       0       0       0
  1702 ;;      Temps:          4       0       0       0       0       0       0
  1703 ;;      Totals:        10       0       0       0       0       0       0
  1704 ;;Total ram usage:       10 bytes
  1705 ;; Hardware stack levels used:    1
  1706 ;; Hardware stack levels required when called:    3
  1707 ;; This function calls:
  1708 ;;		Nothing
  1709 ;; This function is called by:
  1710 ;;		_SetDutyCycleTo
  1711 ;; This function uses a non-reentrant model
  1712 ;;
  1713                           
  1714                           	psect	text8
  1715  001556                     __ptext8:
  1716                           	opt callstack 0
  1717  001556                     ___fltol:
  1718                           	opt callstack 26
  1719  001556  3447               	rlcf	(___fltol@f1+2)^0,w,c
  1720  001558  3448               	rlcf	(___fltol@f1+3)^0,w,c
  1721  00155A  6E4E               	movwf	___fltol@exp1^0,c
  1722  00155C  504E               	movf	___fltol@exp1^0,w,c
  1723  00155E  A4D8               	btfss	status,2,c
  1724  001560  EFB4  F00A         	goto	u3151
  1725  001564  EFB6  F00A         	goto	u3150
  1726  001568                     u3151:
  1727  001568  EFC0  F00A         	goto	l2955
  1728  00156C                     u3150:
  1729  00156C                     l2951:
  1730  00156C  0E00               	movlw	0
  1731  00156E  6E45               	movwf	?___fltol^0,c
  1732  001570  0E00               	movlw	0
  1733  001572  6E46               	movwf	(?___fltol+1)^0,c
  1734  001574  0E00               	movlw	0
  1735  001576  6E47               	movwf	(?___fltol+2)^0,c
  1736  001578  0E00               	movlw	0
  1737  00157A  6E48               	movwf	(?___fltol+3)^0,c
  1738  00157C  EF2D  F00B         	goto	l417
  1739  001580                     l2955:
  1740  001580  C045  F049         	movff	___fltol@f1,??___fltol
  1741  001584  C046  F04A         	movff	___fltol@f1+1,??___fltol+1
  1742  001588  C047  F04B         	movff	___fltol@f1+2,??___fltol+2
  1743  00158C  C048  F04C         	movff	___fltol@f1+3,??___fltol+3
  1744  001590  0E20               	movlw	32
  1745  001592  EFD0  F00A         	goto	u3160
  1746  001596                     u3165:
  1747  001596  90D8               	bcf	status,0,c
  1748  001598  324C               	rrcf	(??___fltol+3)^0,f,c
  1749  00159A  324B               	rrcf	(??___fltol+2)^0,f,c
  1750  00159C  324A               	rrcf	(??___fltol+1)^0,f,c
  1751  00159E  3249               	rrcf	??___fltol^0,f,c
  1752  0015A0                     u3160:
  1753  0015A0  2EE8               	decfsz	wreg,f,c
  1754  0015A2  EFCB  F00A         	goto	u3165
  1755  0015A6  5049               	movf	??___fltol^0,w,c
  1756  0015A8  6E4D               	movwf	___fltol@sign1^0,c
  1757  0015AA  8E47               	bsf	(___fltol@f1+2)^0,7,c
  1758  0015AC  0EFF               	movlw	255
  1759  0015AE  1645               	andwf	___fltol@f1^0,f,c
  1760  0015B0  0EFF               	movlw	255
  1761  0015B2  1646               	andwf	(___fltol@f1+1)^0,f,c
  1762  0015B4  0EFF               	movlw	255
  1763  0015B6  1647               	andwf	(___fltol@f1+2)^0,f,c
  1764  0015B8  0E00               	movlw	0
  1765  0015BA  1648               	andwf	(___fltol@f1+3)^0,f,c
  1766  0015BC  0E96               	movlw	150
  1767  0015BE  5E4E               	subwf	___fltol@exp1^0,f,c
  1768  0015C0  BE4E               	btfsc	___fltol@exp1^0,7,c
  1769  0015C2  EFE7  F00A         	goto	u3170
  1770  0015C6  EFE5  F00A         	goto	u3171
  1771  0015CA                     u3171:
  1772  0015CA  EFFD  F00A         	goto	l2975
  1773  0015CE                     u3170:
  1774  0015CE  504E               	movf	___fltol@exp1^0,w,c
  1775  0015D0  0A80               	xorlw	128
  1776  0015D2  0F97               	addlw	151
  1777  0015D4  B0D8               	btfsc	status,0,c
  1778  0015D6  EFEF  F00A         	goto	u3181
  1779  0015DA  EFF1  F00A         	goto	u3180
  1780  0015DE                     u3181:
  1781  0015DE  EFF3  F00A         	goto	l2971
  1782  0015E2                     u3180:
  1783  0015E2  EFB6  F00A         	goto	l2951
  1784  0015E6                     l2971:
  1785  0015E6  90D8               	bcf	status,0,c
  1786  0015E8  3248               	rrcf	(___fltol@f1+3)^0,f,c
  1787  0015EA  3247               	rrcf	(___fltol@f1+2)^0,f,c
  1788  0015EC  3246               	rrcf	(___fltol@f1+1)^0,f,c
  1789  0015EE  3245               	rrcf	___fltol@f1^0,f,c
  1790  0015F0  3E4E               	incfsz	___fltol@exp1^0,f,c
  1791  0015F2  EFF3  F00A         	goto	l2971
  1792  0015F6  EF15  F00B         	goto	l2985
  1793  0015FA                     l2975:
  1794  0015FA  0E1F               	movlw	31
  1795  0015FC  644E               	cpfsgt	___fltol@exp1^0,c
  1796  0015FE  EF03  F00B         	goto	u3191
  1797  001602  EF05  F00B         	goto	u3190
  1798  001606                     u3191:
  1799  001606  EF0D  F00B         	goto	l2983
  1800  00160A                     u3190:
  1801  00160A  EFB6  F00A         	goto	l2951
  1802  00160E                     l2981:
  1803  00160E  90D8               	bcf	status,0,c
  1804  001610  3645               	rlcf	___fltol@f1^0,f,c
  1805  001612  3646               	rlcf	(___fltol@f1+1)^0,f,c
  1806  001614  3647               	rlcf	(___fltol@f1+2)^0,f,c
  1807  001616  3648               	rlcf	(___fltol@f1+3)^0,f,c
  1808  001618  064E               	decf	___fltol@exp1^0,f,c
  1809  00161A                     l2983:
  1810  00161A  504E               	movf	___fltol@exp1^0,w,c
  1811  00161C  A4D8               	btfss	status,2,c
  1812  00161E  EF13  F00B         	goto	u3201
  1813  001622  EF15  F00B         	goto	u3200
  1814  001626                     u3201:
  1815  001626  EF07  F00B         	goto	l2981
  1816  00162A                     u3200:
  1817  00162A                     l2985:
  1818  00162A  504D               	movf	___fltol@sign1^0,w,c
  1819  00162C  B4D8               	btfsc	status,2,c
  1820  00162E  EF1B  F00B         	goto	u3211
  1821  001632  EF1D  F00B         	goto	u3210
  1822  001636                     u3211:
  1823  001636  EF25  F00B         	goto	l2989
  1824  00163A                     u3210:
  1825  00163A  1E48               	comf	(___fltol@f1+3)^0,f,c
  1826  00163C  1E47               	comf	(___fltol@f1+2)^0,f,c
  1827  00163E  1E46               	comf	(___fltol@f1+1)^0,f,c
  1828  001640  6C45               	negf	___fltol@f1^0,c
  1829  001642  0E00               	movlw	0
  1830  001644  2246               	addwfc	(___fltol@f1+1)^0,f,c
  1831  001646  2247               	addwfc	(___fltol@f1+2)^0,f,c
  1832  001648  2248               	addwfc	(___fltol@f1+3)^0,f,c
  1833  00164A                     l2989:
  1834  00164A  C045  F045         	movff	___fltol@f1,?___fltol
  1835  00164E  C046  F046         	movff	___fltol@f1+1,?___fltol+1
  1836  001652  C047  F047         	movff	___fltol@f1+2,?___fltol+2
  1837  001656  C048  F048         	movff	___fltol@f1+3,?___fltol+3
  1838  00165A                     l417:
  1839  00165A  0012               	return		;funcret
  1840  00165C                     __end_of___fltol:
  1841                           	opt callstack 0
  1842                           
  1843 ;; *************** function ___flmul *****************
  1844 ;; Defined at:
  1845 ;;		line 8 in file "C:\Program Files (x86)\Microchip\xc8\v2.10\pic\sources\c99\common\sprcmul.c"
  1846 ;; Parameters:    Size  Location     Type
  1847 ;;  b               4   43[COMRAM] long 
  1848 ;;  a               4   47[COMRAM] long 
  1849 ;; Auto vars:     Size  Location     Type
  1850 ;;  prod            4   62[COMRAM] struct .
  1851 ;;  grs             4   57[COMRAM] unsigned long 
  1852 ;;  temp            2   66[COMRAM] struct .
  1853 ;;  bexp            1   61[COMRAM] unsigned char 
  1854 ;;  aexp            1   56[COMRAM] unsigned char 
  1855 ;;  sign            1   55[COMRAM] unsigned char 
  1856 ;; Return value:  Size  Location     Type
  1857 ;;                  4   43[COMRAM] unsigned char 
  1858 ;; Registers used:
  1859 ;;		wreg, status,2, status,0, prodl, prodh
  1860 ;; Tracked objects:
  1861 ;;		On entry : 0/0
  1862 ;;		On exit  : 0/0
  1863 ;;		Unchanged: 0/0
  1864 ;; Data sizes:     COMRAM   BANK0   BANK1   BANK2   BANK3   BANK4   BANK5
  1865 ;;      Params:         8       0       0       0       0       0       0
  1866 ;;      Locals:        13       0       0       0       0       0       0
  1867 ;;      Temps:          4       0       0       0       0       0       0
  1868 ;;      Totals:        25       0       0       0       0       0       0
  1869 ;;Total ram usage:       25 bytes
  1870 ;; Hardware stack levels used:    1
  1871 ;; Hardware stack levels required when called:    3
  1872 ;; This function calls:
  1873 ;;		Nothing
  1874 ;; This function is called by:
  1875 ;;		_SetDutyCycleTo
  1876 ;; This function uses a non-reentrant model
  1877 ;;
  1878                           
  1879                           	psect	text9
  1880  000ACC                     __ptext9:
  1881                           	opt callstack 0
  1882  000ACC                     ___flmul:
  1883                           	opt callstack 26
  1884  000ACC  502F               	movf	(___flmul@b+3)^0,w,c
  1885  000ACE  0B80               	andlw	128
  1886  000AD0  6E38               	movwf	___flmul@sign^0,c
  1887  000AD2  502F               	movf	(___flmul@b+3)^0,w,c
  1888  000AD4  242F               	addwf	(___flmul@b+3)^0,w,c
  1889  000AD6  6E3E               	movwf	___flmul@bexp^0,c
  1890  000AD8  AE2E               	btfss	(___flmul@b+2)^0,7,c
  1891  000ADA  EF71  F005         	goto	u2961
  1892  000ADE  EF73  F005         	goto	u2960
  1893  000AE2                     u2961:
  1894  000AE2  EF74  F005         	goto	l2825
  1895  000AE6                     u2960:
  1896  000AE6  803E               	bsf	___flmul@bexp^0,0,c
  1897  000AE8                     l2825:
  1898  000AE8  503E               	movf	___flmul@bexp^0,w,c
  1899  000AEA  B4D8               	btfsc	status,2,c
  1900  000AEC  EF7A  F005         	goto	u2971
  1901  000AF0  EF7C  F005         	goto	u2970
  1902  000AF4                     u2971:
  1903  000AF4  EF8F  F005         	goto	l2833
  1904  000AF8                     u2970:
  1905  000AF8  283E               	incf	___flmul@bexp^0,w,c
  1906  000AFA  A4D8               	btfss	status,2,c
  1907  000AFC  EF82  F005         	goto	u2981
  1908  000B00  EF84  F005         	goto	u2980
  1909  000B04                     u2981:
  1910  000B04  EF8C  F005         	goto	l2831
  1911  000B08                     u2980:
  1912  000B08  0E00               	movlw	0
  1913  000B0A  6E2C               	movwf	___flmul@b^0,c
  1914  000B0C  0E00               	movlw	0
  1915  000B0E  6E2D               	movwf	(___flmul@b+1)^0,c
  1916  000B10  0E00               	movlw	0
  1917  000B12  6E2E               	movwf	(___flmul@b+2)^0,c
  1918  000B14  0E00               	movlw	0
  1919  000B16  6E2F               	movwf	(___flmul@b+3)^0,c
  1920  000B18                     l2831:
  1921  000B18  8E2E               	bsf	(___flmul@b+2)^0,7,c
  1922  000B1A  EF97  F005         	goto	l2835
  1923  000B1E                     l2833:
  1924  000B1E  0E00               	movlw	0
  1925  000B20  6E2C               	movwf	___flmul@b^0,c
  1926  000B22  0E00               	movlw	0
  1927  000B24  6E2D               	movwf	(___flmul@b+1)^0,c
  1928  000B26  0E00               	movlw	0
  1929  000B28  6E2E               	movwf	(___flmul@b+2)^0,c
  1930  000B2A  0E00               	movlw	0
  1931  000B2C  6E2F               	movwf	(___flmul@b+3)^0,c
  1932  000B2E                     l2835:
  1933  000B2E  5033               	movf	(___flmul@a+3)^0,w,c
  1934  000B30  0B80               	andlw	128
  1935  000B32  1A38               	xorwf	___flmul@sign^0,f,c
  1936  000B34  5033               	movf	(___flmul@a+3)^0,w,c
  1937  000B36  2433               	addwf	(___flmul@a+3)^0,w,c
  1938  000B38  6E39               	movwf	___flmul@aexp^0,c
  1939  000B3A  AE32               	btfss	(___flmul@a+2)^0,7,c
  1940  000B3C  EFA2  F005         	goto	u2991
  1941  000B40  EFA4  F005         	goto	u2990
  1942  000B44                     u2991:
  1943  000B44  EFA5  F005         	goto	l2843
  1944  000B48                     u2990:
  1945  000B48  8039               	bsf	___flmul@aexp^0,0,c
  1946  000B4A                     l2843:
  1947  000B4A  5039               	movf	___flmul@aexp^0,w,c
  1948  000B4C  B4D8               	btfsc	status,2,c
  1949  000B4E  EFAB  F005         	goto	u3001
  1950  000B52  EFAD  F005         	goto	u3000
  1951  000B56                     u3001:
  1952  000B56  EFC0  F005         	goto	l2851
  1953  000B5A                     u3000:
  1954  000B5A  2839               	incf	___flmul@aexp^0,w,c
  1955  000B5C  A4D8               	btfss	status,2,c
  1956  000B5E  EFB3  F005         	goto	u3011
  1957  000B62  EFB5  F005         	goto	u3010
  1958  000B66                     u3011:
  1959  000B66  EFBD  F005         	goto	l2849
  1960  000B6A                     u3010:
  1961  000B6A  0E00               	movlw	0
  1962  000B6C  6E30               	movwf	___flmul@a^0,c
  1963  000B6E  0E00               	movlw	0
  1964  000B70  6E31               	movwf	(___flmul@a+1)^0,c
  1965  000B72  0E00               	movlw	0
  1966  000B74  6E32               	movwf	(___flmul@a+2)^0,c
  1967  000B76  0E00               	movlw	0
  1968  000B78  6E33               	movwf	(___flmul@a+3)^0,c
  1969  000B7A                     l2849:
  1970  000B7A  8E32               	bsf	(___flmul@a+2)^0,7,c
  1971  000B7C  EFC8  F005         	goto	l734
  1972  000B80                     l2851:
  1973  000B80  0E00               	movlw	0
  1974  000B82  6E30               	movwf	___flmul@a^0,c
  1975  000B84  0E00               	movlw	0
  1976  000B86  6E31               	movwf	(___flmul@a+1)^0,c
  1977  000B88  0E00               	movlw	0
  1978  000B8A  6E32               	movwf	(___flmul@a+2)^0,c
  1979  000B8C  0E00               	movlw	0
  1980  000B8E  6E33               	movwf	(___flmul@a+3)^0,c
  1981  000B90                     l734:
  1982  000B90  5039               	movf	___flmul@aexp^0,w,c
  1983  000B92  B4D8               	btfsc	status,2,c
  1984  000B94  EFCE  F005         	goto	u3021
  1985  000B98  EFD0  F005         	goto	u3020
  1986  000B9C                     u3021:
  1987  000B9C  EFD8  F005         	goto	l2855
  1988  000BA0                     u3020:
  1989  000BA0  503E               	movf	___flmul@bexp^0,w,c
  1990  000BA2  A4D8               	btfss	status,2,c
  1991  000BA4  EFD6  F005         	goto	u3031
  1992  000BA8  EFD8  F005         	goto	u3030
  1993  000BAC                     u3031:
  1994  000BAC  EFE2  F005         	goto	l2859
  1995  000BB0                     u3030:
  1996  000BB0                     l2855:
  1997  000BB0  0E00               	movlw	0
  1998  000BB2  6E2C               	movwf	?___flmul^0,c
  1999  000BB4  0E00               	movlw	0
  2000  000BB6  6E2D               	movwf	(?___flmul+1)^0,c
  2001  000BB8  0E00               	movlw	0
  2002  000BBA  6E2E               	movwf	(?___flmul+2)^0,c
  2003  000BBC  0E00               	movlw	0
  2004  000BBE  6E2F               	movwf	(?___flmul+3)^0,c
  2005  000BC0  EF7A  F007         	goto	l738
  2006  000BC4                     l2859:
  2007  000BC4  5032               	movf	(___flmul@a+2)^0,w,c
  2008  000BC6  022C               	mulwf	___flmul@b^0,c
  2009  000BC8  CFF3 F043          	movff	prodl,___flmul@temp
  2010  000BCC  CFF4 F044          	movff	prodh,___flmul@temp+1
  2011  000BD0  5043               	movf	___flmul@temp^0,w,c
  2012  000BD2  6E3A               	movwf	___flmul@grs^0,c
  2013  000BD4  6A3B               	clrf	(___flmul@grs+1)^0,c
  2014  000BD6  6A3C               	clrf	(___flmul@grs+2)^0,c
  2015  000BD8  6A3D               	clrf	(___flmul@grs+3)^0,c
  2016  000BDA  5044               	movf	(___flmul@temp+1)^0,w,c
  2017  000BDC  6E3F               	movwf	___flmul@prod^0,c
  2018  000BDE  6A40               	clrf	(___flmul@prod+1)^0,c
  2019  000BE0  6A41               	clrf	(___flmul@prod+2)^0,c
  2020  000BE2  6A42               	clrf	(___flmul@prod+3)^0,c
  2021  000BE4  5031               	movf	(___flmul@a+1)^0,w,c
  2022  000BE6  022D               	mulwf	(___flmul@b+1)^0,c
  2023  000BE8  CFF3 F043          	movff	prodl,___flmul@temp
  2024  000BEC  CFF4 F044          	movff	prodh,___flmul@temp+1
  2025  000BF0  5043               	movf	___flmul@temp^0,w,c
  2026  000BF2  263A               	addwf	___flmul@grs^0,f,c
  2027  000BF4  0E00               	movlw	0
  2028  000BF6  223B               	addwfc	(___flmul@grs+1)^0,f,c
  2029  000BF8  223C               	addwfc	(___flmul@grs+2)^0,f,c
  2030  000BFA  223D               	addwfc	(___flmul@grs+3)^0,f,c
  2031  000BFC  5044               	movf	(___flmul@temp+1)^0,w,c
  2032  000BFE  263F               	addwf	___flmul@prod^0,f,c
  2033  000C00  0E00               	movlw	0
  2034  000C02  2240               	addwfc	(___flmul@prod+1)^0,f,c
  2035  000C04  2241               	addwfc	(___flmul@prod+2)^0,f,c
  2036  000C06  2242               	addwfc	(___flmul@prod+3)^0,f,c
  2037  000C08  5030               	movf	___flmul@a^0,w,c
  2038  000C0A  022E               	mulwf	(___flmul@b+2)^0,c
  2039  000C0C  CFF3 F043          	movff	prodl,___flmul@temp
  2040  000C10  CFF4 F044          	movff	prodh,___flmul@temp+1
  2041  000C14  5043               	movf	___flmul@temp^0,w,c
  2042  000C16  263A               	addwf	___flmul@grs^0,f,c
  2043  000C18  0E00               	movlw	0
  2044  000C1A  223B               	addwfc	(___flmul@grs+1)^0,f,c
  2045  000C1C  223C               	addwfc	(___flmul@grs+2)^0,f,c
  2046  000C1E  223D               	addwfc	(___flmul@grs+3)^0,f,c
  2047  000C20  5044               	movf	(___flmul@temp+1)^0,w,c
  2048  000C22  263F               	addwf	___flmul@prod^0,f,c
  2049  000C24  0E00               	movlw	0
  2050  000C26  2240               	addwfc	(___flmul@prod+1)^0,f,c
  2051  000C28  2241               	addwfc	(___flmul@prod+2)^0,f,c
  2052  000C2A  2242               	addwfc	(___flmul@prod+3)^0,f,c
  2053  000C2C  C03C  F03D         	movff	___flmul@grs+2,___flmul@grs+3
  2054  000C30  C03B  F03C         	movff	___flmul@grs+1,___flmul@grs+2
  2055  000C34  C03A  F03B         	movff	___flmul@grs,___flmul@grs+1
  2056  000C38  6A3A               	clrf	___flmul@grs^0,c
  2057  000C3A  5030               	movf	___flmul@a^0,w,c
  2058  000C3C  022D               	mulwf	(___flmul@b+1)^0,c
  2059  000C3E  CFF3 F043          	movff	prodl,___flmul@temp
  2060  000C42  CFF4 F044          	movff	prodh,___flmul@temp+1
  2061  000C46  5043               	movf	___flmul@temp^0,w,c
  2062  000C48  263A               	addwf	___flmul@grs^0,f,c
  2063  000C4A  5044               	movf	(___flmul@temp+1)^0,w,c
  2064  000C4C  223B               	addwfc	(___flmul@grs+1)^0,f,c
  2065  000C4E  0E00               	movlw	0
  2066  000C50  223C               	addwfc	(___flmul@grs+2)^0,f,c
  2067  000C52  0E00               	movlw	0
  2068  000C54  223D               	addwfc	(___flmul@grs+3)^0,f,c
  2069  000C56  5031               	movf	(___flmul@a+1)^0,w,c
  2070  000C58  022C               	mulwf	___flmul@b^0,c
  2071  000C5A  CFF3 F043          	movff	prodl,___flmul@temp
  2072  000C5E  CFF4 F044          	movff	prodh,___flmul@temp+1
  2073  000C62  5043               	movf	___flmul@temp^0,w,c
  2074  000C64  263A               	addwf	___flmul@grs^0,f,c
  2075  000C66  5044               	movf	(___flmul@temp+1)^0,w,c
  2076  000C68  223B               	addwfc	(___flmul@grs+1)^0,f,c
  2077  000C6A  0E00               	movlw	0
  2078  000C6C  223C               	addwfc	(___flmul@grs+2)^0,f,c
  2079  000C6E  0E00               	movlw	0
  2080  000C70  223D               	addwfc	(___flmul@grs+3)^0,f,c
  2081  000C72  C03C  F03D         	movff	___flmul@grs+2,___flmul@grs+3
  2082  000C76  C03B  F03C         	movff	___flmul@grs+1,___flmul@grs+2
  2083  000C7A  C03A  F03B         	movff	___flmul@grs,___flmul@grs+1
  2084  000C7E  6A3A               	clrf	___flmul@grs^0,c
  2085  000C80  5030               	movf	___flmul@a^0,w,c
  2086  000C82  022C               	mulwf	___flmul@b^0,c
  2087  000C84  CFF3 F043          	movff	prodl,___flmul@temp
  2088  000C88  CFF4 F044          	movff	prodh,___flmul@temp+1
  2089  000C8C  5043               	movf	___flmul@temp^0,w,c
  2090  000C8E  263A               	addwf	___flmul@grs^0,f,c
  2091  000C90  5044               	movf	(___flmul@temp+1)^0,w,c
  2092  000C92  223B               	addwfc	(___flmul@grs+1)^0,f,c
  2093  000C94  0E00               	movlw	0
  2094  000C96  223C               	addwfc	(___flmul@grs+2)^0,f,c
  2095  000C98  0E00               	movlw	0
  2096  000C9A  223D               	addwfc	(___flmul@grs+3)^0,f,c
  2097  000C9C  5032               	movf	(___flmul@a+2)^0,w,c
  2098  000C9E  022D               	mulwf	(___flmul@b+1)^0,c
  2099  000CA0  CFF3 F043          	movff	prodl,___flmul@temp
  2100  000CA4  CFF4 F044          	movff	prodh,___flmul@temp+1
  2101  000CA8  5043               	movf	___flmul@temp^0,w,c
  2102  000CAA  263F               	addwf	___flmul@prod^0,f,c
  2103  000CAC  5044               	movf	(___flmul@temp+1)^0,w,c
  2104  000CAE  2240               	addwfc	(___flmul@prod+1)^0,f,c
  2105  000CB0  0E00               	movlw	0
  2106  000CB2  2241               	addwfc	(___flmul@prod+2)^0,f,c
  2107  000CB4  0E00               	movlw	0
  2108  000CB6  2242               	addwfc	(___flmul@prod+3)^0,f,c
  2109  000CB8  5031               	movf	(___flmul@a+1)^0,w,c
  2110  000CBA  022E               	mulwf	(___flmul@b+2)^0,c
  2111  000CBC  CFF3 F043          	movff	prodl,___flmul@temp
  2112  000CC0  CFF4 F044          	movff	prodh,___flmul@temp+1
  2113  000CC4  5043               	movf	___flmul@temp^0,w,c
  2114  000CC6  263F               	addwf	___flmul@prod^0,f,c
  2115  000CC8  5044               	movf	(___flmul@temp+1)^0,w,c
  2116  000CCA  2240               	addwfc	(___flmul@prod+1)^0,f,c
  2117  000CCC  0E00               	movlw	0
  2118  000CCE  2241               	addwfc	(___flmul@prod+2)^0,f,c
  2119  000CD0  0E00               	movlw	0
  2120  000CD2  2242               	addwfc	(___flmul@prod+3)^0,f,c
  2121  000CD4  5032               	movf	(___flmul@a+2)^0,w,c
  2122  000CD6  022E               	mulwf	(___flmul@b+2)^0,c
  2123  000CD8  CFF3 F043          	movff	prodl,___flmul@temp
  2124  000CDC  CFF4 F044          	movff	prodh,___flmul@temp+1
  2125  000CE0  5043               	movf	___flmul@temp^0,w,c
  2126  000CE2  6E34               	movwf	??___flmul^0,c
  2127  000CE4  5044               	movf	(___flmul@temp+1)^0,w,c
  2128  000CE6  6E35               	movwf	(??___flmul+1)^0,c
  2129  000CE8  6A36               	clrf	(??___flmul+2)^0,c
  2130  000CEA  6A37               	clrf	(??___flmul+3)^0,c
  2131  000CEC  C036  F037         	movff	??___flmul+2,??___flmul+3
  2132  000CF0  C035  F036         	movff	??___flmul+1,??___flmul+2
  2133  000CF4  C034  F035         	movff	??___flmul,??___flmul+1
  2134  000CF8  6A34               	clrf	??___flmul^0,c
  2135  000CFA  5034               	movf	??___flmul^0,w,c
  2136  000CFC  263F               	addwf	___flmul@prod^0,f,c
  2137  000CFE  5035               	movf	(??___flmul+1)^0,w,c
  2138  000D00  2240               	addwfc	(___flmul@prod+1)^0,f,c
  2139  000D02  5036               	movf	(??___flmul+2)^0,w,c
  2140  000D04  2241               	addwfc	(___flmul@prod+2)^0,f,c
  2141  000D06  5037               	movf	(??___flmul+3)^0,w,c
  2142  000D08  2242               	addwfc	(___flmul@prod+3)^0,f,c
  2143  000D0A  C03A  F034         	movff	___flmul@grs,??___flmul
  2144  000D0E  C03B  F035         	movff	___flmul@grs+1,??___flmul+1
  2145  000D12  C03C  F036         	movff	___flmul@grs+2,??___flmul+2
  2146  000D16  C03D  F037         	movff	___flmul@grs+3,??___flmul+3
  2147  000D1A  0E19               	movlw	25
  2148  000D1C  EF95  F006         	goto	u3040
  2149  000D20                     u3045:
  2150  000D20  90D8               	bcf	status,0,c
  2151  000D22  3237               	rrcf	(??___flmul+3)^0,f,c
  2152  000D24  3236               	rrcf	(??___flmul+2)^0,f,c
  2153  000D26  3235               	rrcf	(??___flmul+1)^0,f,c
  2154  000D28  3234               	rrcf	??___flmul^0,f,c
  2155  000D2A                     u3040:
  2156  000D2A  2EE8               	decfsz	wreg,f,c
  2157  000D2C  EF90  F006         	goto	u3045
  2158  000D30  5034               	movf	??___flmul^0,w,c
  2159  000D32  263F               	addwf	___flmul@prod^0,f,c
  2160  000D34  5035               	movf	(??___flmul+1)^0,w,c
  2161  000D36  2240               	addwfc	(___flmul@prod+1)^0,f,c
  2162  000D38  5036               	movf	(??___flmul+2)^0,w,c
  2163  000D3A  2241               	addwfc	(___flmul@prod+2)^0,f,c
  2164  000D3C  5037               	movf	(??___flmul+3)^0,w,c
  2165  000D3E  2242               	addwfc	(___flmul@prod+3)^0,f,c
  2166  000D40  C03C  F03D         	movff	___flmul@grs+2,___flmul@grs+3
  2167  000D44  C03B  F03C         	movff	___flmul@grs+1,___flmul@grs+2
  2168  000D48  C03A  F03B         	movff	___flmul@grs,___flmul@grs+1
  2169  000D4C  6A3A               	clrf	___flmul@grs^0,c
  2170  000D4E  5039               	movf	___flmul@aexp^0,w,c
  2171  000D50  C03E  F034         	movff	___flmul@bexp,??___flmul
  2172  000D54  6A35               	clrf	(??___flmul+1)^0,c
  2173  000D56  2634               	addwf	??___flmul^0,f,c
  2174  000D58  0E00               	movlw	0
  2175  000D5A  2235               	addwfc	(??___flmul+1)^0,f,c
  2176  000D5C  0E82               	movlw	130
  2177  000D5E  2434               	addwf	??___flmul^0,w,c
  2178  000D60  6E43               	movwf	___flmul@temp^0,c
  2179  000D62  0EFF               	movlw	255
  2180  000D64  2035               	addwfc	(??___flmul+1)^0,w,c
  2181  000D66  6E44               	movwf	(___flmul@temp+1)^0,c
  2182  000D68  EFCB  F006         	goto	l2907
  2183  000D6C                     l2901:
  2184  000D6C  90D8               	bcf	status,0,c
  2185  000D6E  363F               	rlcf	___flmul@prod^0,f,c
  2186  000D70  3640               	rlcf	(___flmul@prod+1)^0,f,c
  2187  000D72  3641               	rlcf	(___flmul@prod+2)^0,f,c
  2188  000D74  3642               	rlcf	(___flmul@prod+3)^0,f,c
  2189  000D76  AE3D               	btfss	(___flmul@grs+3)^0,7,c
  2190  000D78  EFC0  F006         	goto	u3051
  2191  000D7C  EFC2  F006         	goto	u3050
  2192  000D80                     u3051:
  2193  000D80  EFC3  F006         	goto	l741
  2194  000D84                     u3050:
  2195  000D84  803F               	bsf	___flmul@prod^0,0,c
  2196  000D86                     l741:
  2197  000D86  90D8               	bcf	status,0,c
  2198  000D88  363A               	rlcf	___flmul@grs^0,f,c
  2199  000D8A  363B               	rlcf	(___flmul@grs+1)^0,f,c
  2200  000D8C  363C               	rlcf	(___flmul@grs+2)^0,f,c
  2201  000D8E  363D               	rlcf	(___flmul@grs+3)^0,f,c
  2202  000D90  0643               	decf	___flmul@temp^0,f,c
  2203  000D92  A0D8               	btfss	status,0,c
  2204  000D94  0644               	decf	(___flmul@temp+1)^0,f,c
  2205  000D96                     l2907:
  2206  000D96  AE41               	btfss	(___flmul@prod+2)^0,7,c
  2207  000D98  EFD0  F006         	goto	u3061
  2208  000D9C  EFD2  F006         	goto	u3060
  2209  000DA0                     u3061:
  2210  000DA0  EFB6  F006         	goto	l2901
  2211  000DA4                     u3060:
  2212  000DA4  0E00               	movlw	0
  2213  000DA6  6E39               	movwf	___flmul@aexp^0,c
  2214  000DA8  AE3D               	btfss	(___flmul@grs+3)^0,7,c
  2215  000DAA  EFD9  F006         	goto	u3071
  2216  000DAE  EFDB  F006         	goto	u3070
  2217  000DB2                     u3071:
  2218  000DB2  EFFF  F006         	goto	l743
  2219  000DB6                     u3070:
  2220  000DB6  0EFF               	movlw	255
  2221  000DB8  143A               	andwf	___flmul@grs^0,w,c
  2222  000DBA  6E34               	movwf	??___flmul^0,c
  2223  000DBC  0EFF               	movlw	255
  2224  000DBE  143B               	andwf	(___flmul@grs+1)^0,w,c
  2225  000DC0  6E35               	movwf	(??___flmul+1)^0,c
  2226  000DC2  0EFF               	movlw	255
  2227  000DC4  143C               	andwf	(___flmul@grs+2)^0,w,c
  2228  000DC6  6E36               	movwf	(??___flmul+2)^0,c
  2229  000DC8  0E7F               	movlw	127
  2230  000DCA  143D               	andwf	(___flmul@grs+3)^0,w,c
  2231  000DCC  6E37               	movwf	(??___flmul+3)^0,c
  2232  000DCE  5034               	movf	??___flmul^0,w,c
  2233  000DD0  1035               	iorwf	(??___flmul+1)^0,w,c
  2234  000DD2  1036               	iorwf	(??___flmul+2)^0,w,c
  2235  000DD4  1037               	iorwf	(??___flmul+3)^0,w,c
  2236  000DD6  B4D8               	btfsc	status,2,c
  2237  000DD8  EFF0  F006         	goto	u3081
  2238  000DDC  EFF2  F006         	goto	u3080
  2239  000DE0                     u3081:
  2240  000DE0  EFF6  F006         	goto	l744
  2241  000DE4                     u3080:
  2242  000DE4                     l2915:
  2243  000DE4  0E01               	movlw	1
  2244  000DE6  6E39               	movwf	___flmul@aexp^0,c
  2245  000DE8  EFFF  F006         	goto	l743
  2246  000DEC                     l744:
  2247  000DEC  A03F               	btfss	___flmul@prod^0,0,c
  2248  000DEE  EFFB  F006         	goto	u3091
  2249  000DF2  EFFD  F006         	goto	u3090
  2250  000DF6                     u3091:
  2251  000DF6  EFFF  F006         	goto	l743
  2252  000DFA                     u3090:
  2253  000DFA  EFF2  F006         	goto	l2915
  2254  000DFE                     l743:
  2255  000DFE  5039               	movf	___flmul@aexp^0,w,c
  2256  000E00  B4D8               	btfsc	status,2,c
  2257  000E02  EF05  F007         	goto	u3101
  2258  000E06  EF07  F007         	goto	u3100
  2259  000E0A                     u3101:
  2260  000E0A  EF2B  F007         	goto	l2927
  2261  000E0E                     u3100:
  2262  000E0E  0E01               	movlw	1
  2263  000E10  263F               	addwf	___flmul@prod^0,f,c
  2264  000E12  0E00               	movlw	0
  2265  000E14  2240               	addwfc	(___flmul@prod+1)^0,f,c
  2266  000E16  2241               	addwfc	(___flmul@prod+2)^0,f,c
  2267  000E18  2242               	addwfc	(___flmul@prod+3)^0,f,c
  2268  000E1A  A042               	btfss	(___flmul@prod+3)^0,0,c
  2269  000E1C  EF12  F007         	goto	u3111
  2270  000E20  EF14  F007         	goto	u3110
  2271  000E24                     u3111:
  2272  000E24  EF2B  F007         	goto	l2927
  2273  000E28                     u3110:
  2274  000E28  C03F  F034         	movff	___flmul@prod,??___flmul
  2275  000E2C  C040  F035         	movff	___flmul@prod+1,??___flmul+1
  2276  000E30  C041  F036         	movff	___flmul@prod+2,??___flmul+2
  2277  000E34  C042  F037         	movff	___flmul@prod+3,??___flmul+3
  2278  000E38  3437               	rlcf	(??___flmul+3)^0,w,c
  2279  000E3A  3237               	rrcf	(??___flmul+3)^0,f,c
  2280  000E3C  3236               	rrcf	(??___flmul+2)^0,f,c
  2281  000E3E  3235               	rrcf	(??___flmul+1)^0,f,c
  2282  000E40  3234               	rrcf	??___flmul^0,f,c
  2283  000E42  C034  F03F         	movff	??___flmul,___flmul@prod
  2284  000E46  C035  F040         	movff	??___flmul+1,___flmul@prod+1
  2285  000E4A  C036  F041         	movff	??___flmul+2,___flmul@prod+2
  2286  000E4E  C037  F042         	movff	??___flmul+3,___flmul@prod+3
  2287  000E52  4A43               	infsnz	___flmul@temp^0,f,c
  2288  000E54  2A44               	incf	(___flmul@temp+1)^0,f,c
  2289  000E56                     l2927:
  2290  000E56  BE44               	btfsc	(___flmul@temp+1)^0,7,c
  2291  000E58  EF36  F007         	goto	u3121
  2292  000E5C  5044               	movf	(___flmul@temp+1)^0,w,c
  2293  000E5E  E108               	bnz	u3120
  2294  000E60  2843               	incf	___flmul@temp^0,w,c
  2295  000E62  A0D8               	btfss	status,0,c
  2296  000E64  EF36  F007         	goto	u3121
  2297  000E68  EF38  F007         	goto	u3120
  2298  000E6C                     u3121:
  2299  000E6C  EF42  F007         	goto	l2931
  2300  000E70                     u3120:
  2301  000E70  0E00               	movlw	0
  2302  000E72  6E3F               	movwf	___flmul@prod^0,c
  2303  000E74  0E00               	movlw	0
  2304  000E76  6E40               	movwf	(___flmul@prod+1)^0,c
  2305  000E78  0E80               	movlw	128
  2306  000E7A  6E41               	movwf	(___flmul@prod+2)^0,c
  2307  000E7C  0E7F               	movlw	127
  2308  000E7E  6E42               	movwf	(___flmul@prod+3)^0,c
  2309  000E80  EF70  F007         	goto	l2943
  2310  000E84                     l2931:
  2311  000E84  BE44               	btfsc	(___flmul@temp+1)^0,7,c
  2312  000E86  EF4F  F007         	goto	u3130
  2313  000E8A  5044               	movf	(___flmul@temp+1)^0,w,c
  2314  000E8C  E106               	bnz	u3131
  2315  000E8E  0443               	decf	___flmul@temp^0,w,c
  2316  000E90  B0D8               	btfsc	status,0,c
  2317  000E92  EF4D  F007         	goto	u3131
  2318  000E96  EF4F  F007         	goto	u3130
  2319  000E9A                     u3131:
  2320  000E9A  EF5B  F007         	goto	l751
  2321  000E9E                     u3130:
  2322  000E9E  0E00               	movlw	0
  2323  000EA0  6E3F               	movwf	___flmul@prod^0,c
  2324  000EA2  0E00               	movlw	0
  2325  000EA4  6E40               	movwf	(___flmul@prod+1)^0,c
  2326  000EA6  0E00               	movlw	0
  2327  000EA8  6E41               	movwf	(___flmul@prod+2)^0,c
  2328  000EAA  0E00               	movlw	0
  2329  000EAC  6E42               	movwf	(___flmul@prod+3)^0,c
  2330  000EAE  0E00               	movlw	0
  2331  000EB0  6E38               	movwf	___flmul@sign^0,c
  2332  000EB2  EF70  F007         	goto	l2943
  2333  000EB6                     l751:
  2334  000EB6  C043  F03E         	movff	___flmul@temp,___flmul@bexp
  2335  000EBA  0EFF               	movlw	255
  2336  000EBC  163F               	andwf	___flmul@prod^0,f,c
  2337  000EBE  0EFF               	movlw	255
  2338  000EC0  1640               	andwf	(___flmul@prod+1)^0,f,c
  2339  000EC2  0E7F               	movlw	127
  2340  000EC4  1641               	andwf	(___flmul@prod+2)^0,f,c
  2341  000EC6  0E00               	movlw	0
  2342  000EC8  1642               	andwf	(___flmul@prod+3)^0,f,c
  2343  000ECA  A03E               	btfss	___flmul@bexp^0,0,c
  2344  000ECC  EF6A  F007         	goto	u3141
  2345  000ED0  EF6C  F007         	goto	u3140
  2346  000ED4                     u3141:
  2347  000ED4  EF6D  F007         	goto	l2941
  2348  000ED8                     u3140:
  2349  000ED8  8E41               	bsf	(___flmul@prod+2)^0,7,c
  2350  000EDA                     l2941:
  2351  000EDA  90D8               	bcf	status,0,c
  2352  000EDC  303E               	rrcf	___flmul@bexp^0,w,c
  2353  000EDE  6E42               	movwf	(___flmul@prod+3)^0,c
  2354  000EE0                     l2943:
  2355  000EE0  5038               	movf	___flmul@sign^0,w,c
  2356  000EE2  1242               	iorwf	(___flmul@prod+3)^0,f,c
  2357  000EE4  C03F  F02C         	movff	___flmul@prod,?___flmul
  2358  000EE8  C040  F02D         	movff	___flmul@prod+1,?___flmul+1
  2359  000EEC  C041  F02E         	movff	___flmul@prod+2,?___flmul+2
  2360  000EF0  C042  F02F         	movff	___flmul@prod+3,?___flmul+3
  2361  000EF4                     l738:
  2362  000EF4  0012               	return		;funcret
  2363  000EF6                     __end_of___flmul:
  2364                           	opt callstack 0
  2365                           
  2366 ;; *************** function ___fldiv *****************
  2367 ;; Defined at:
  2368 ;;		line 11 in file "C:\Program Files (x86)\Microchip\xc8\v2.10\pic\sources\c99\common\sprcdiv.c"
  2369 ;; Parameters:    Size  Location     Type
  2370 ;;  b               4   13[COMRAM] unsigned char 
  2371 ;;  a               4   17[COMRAM] unsigned char 
  2372 ;; Auto vars:     Size  Location     Type
  2373 ;;  grs             4   32[COMRAM] unsigned long 
  2374 ;;  rem             4   25[COMRAM] unsigned long 
  2375 ;;  new_exp         2   30[COMRAM] short 
  2376 ;;  aexp            1   37[COMRAM] unsigned char 
  2377 ;;  bexp            1   36[COMRAM] unsigned char 
  2378 ;;  sign            1   29[COMRAM] unsigned char 
  2379 ;; Return value:  Size  Location     Type
  2380 ;;                  4   13[COMRAM] unsigned char 
  2381 ;; Registers used:
  2382 ;;		wreg, status,2, status,0
  2383 ;; Tracked objects:
  2384 ;;		On entry : 0/0
  2385 ;;		On exit  : 0/0
  2386 ;;		Unchanged: 0/0
  2387 ;; Data sizes:     COMRAM   BANK0   BANK1   BANK2   BANK3   BANK4   BANK5
  2388 ;;      Params:         8       0       0       0       0       0       0
  2389 ;;      Locals:        13       0       0       0       0       0       0
  2390 ;;      Temps:          4       0       0       0       0       0       0
  2391 ;;      Totals:        25       0       0       0       0       0       0
  2392 ;;Total ram usage:       25 bytes
  2393 ;; Hardware stack levels used:    1
  2394 ;; Hardware stack levels required when called:    3
  2395 ;; This function calls:
  2396 ;;		Nothing
  2397 ;; This function is called by:
  2398 ;;		_SetDutyCycleTo
  2399 ;; This function uses a non-reentrant model
  2400 ;;
  2401                           
  2402                           	psect	text10
  2403  000EF6                     __ptext10:
  2404                           	opt callstack 0
  2405  000EF6                     ___fldiv:
  2406                           	opt callstack 26
  2407  000EF6  5011               	movf	(___fldiv@b+3)^0,w,c
  2408  000EF8  0B80               	andlw	128
  2409  000EFA  6E1E               	movwf	___fldiv@sign^0,c
  2410  000EFC  5011               	movf	(___fldiv@b+3)^0,w,c
  2411  000EFE  2411               	addwf	(___fldiv@b+3)^0,w,c
  2412  000F00  6E25               	movwf	___fldiv@bexp^0,c
  2413  000F02  AE10               	btfss	(___fldiv@b+2)^0,7,c
  2414  000F04  EF86  F007         	goto	u2731
  2415  000F08  EF88  F007         	goto	u2730
  2416  000F0C                     u2731:
  2417  000F0C  EF89  F007         	goto	l2687
  2418  000F10                     u2730:
  2419  000F10  8025               	bsf	___fldiv@bexp^0,0,c
  2420  000F12                     l2687:
  2421  000F12  5025               	movf	___fldiv@bexp^0,w,c
  2422  000F14  B4D8               	btfsc	status,2,c
  2423  000F16  EF8F  F007         	goto	u2741
  2424  000F1A  EF91  F007         	goto	u2740
  2425  000F1E                     u2741:
  2426  000F1E  EFA6  F007         	goto	l2697
  2427  000F22                     u2740:
  2428  000F22  2825               	incf	___fldiv@bexp^0,w,c
  2429  000F24  A4D8               	btfss	status,2,c
  2430  000F26  EF97  F007         	goto	u2751
  2431  000F2A  EF99  F007         	goto	u2750
  2432  000F2E                     u2751:
  2433  000F2E  EFA1  F007         	goto	l2693
  2434  000F32                     u2750:
  2435  000F32  0E00               	movlw	0
  2436  000F34  6E0E               	movwf	___fldiv@b^0,c
  2437  000F36  0E00               	movlw	0
  2438  000F38  6E0F               	movwf	(___fldiv@b+1)^0,c
  2439  000F3A  0E00               	movlw	0
  2440  000F3C  6E10               	movwf	(___fldiv@b+2)^0,c
  2441  000F3E  0E00               	movlw	0
  2442  000F40  6E11               	movwf	(___fldiv@b+3)^0,c
  2443  000F42                     l2693:
  2444  000F42  8E10               	bsf	(___fldiv@b+2)^0,7,c
  2445  000F44  0E00               	movlw	0
  2446  000F46  6E11               	movwf	(___fldiv@b+3)^0,c
  2447  000F48  EFAE  F007         	goto	l2699
  2448  000F4C                     l2697:
  2449  000F4C  0E00               	movlw	0
  2450  000F4E  6E0E               	movwf	___fldiv@b^0,c
  2451  000F50  0E00               	movlw	0
  2452  000F52  6E0F               	movwf	(___fldiv@b+1)^0,c
  2453  000F54  0E00               	movlw	0
  2454  000F56  6E10               	movwf	(___fldiv@b+2)^0,c
  2455  000F58  0E00               	movlw	0
  2456  000F5A  6E11               	movwf	(___fldiv@b+3)^0,c
  2457  000F5C                     l2699:
  2458  000F5C  5015               	movf	(___fldiv@a+3)^0,w,c
  2459  000F5E  0B80               	andlw	128
  2460  000F60  1A1E               	xorwf	___fldiv@sign^0,f,c
  2461  000F62  5015               	movf	(___fldiv@a+3)^0,w,c
  2462  000F64  2415               	addwf	(___fldiv@a+3)^0,w,c
  2463  000F66  6E26               	movwf	___fldiv@aexp^0,c
  2464  000F68  AE14               	btfss	(___fldiv@a+2)^0,7,c
  2465  000F6A  EFB9  F007         	goto	u2761
  2466  000F6E  EFBB  F007         	goto	u2760
  2467  000F72                     u2761:
  2468  000F72  EFBC  F007         	goto	l2707
  2469  000F76                     u2760:
  2470  000F76  8026               	bsf	___fldiv@aexp^0,0,c
  2471  000F78                     l2707:
  2472  000F78  5026               	movf	___fldiv@aexp^0,w,c
  2473  000F7A  B4D8               	btfsc	status,2,c
  2474  000F7C  EFC2  F007         	goto	u2771
  2475  000F80  EFC4  F007         	goto	u2770
  2476  000F84                     u2771:
  2477  000F84  EFD9  F007         	goto	l2717
  2478  000F88                     u2770:
  2479  000F88  2826               	incf	___fldiv@aexp^0,w,c
  2480  000F8A  A4D8               	btfss	status,2,c
  2481  000F8C  EFCA  F007         	goto	u2781
  2482  000F90  EFCC  F007         	goto	u2780
  2483  000F94                     u2781:
  2484  000F94  EFD4  F007         	goto	l2713
  2485  000F98                     u2780:
  2486  000F98  0E00               	movlw	0
  2487  000F9A  6E12               	movwf	___fldiv@a^0,c
  2488  000F9C  0E00               	movlw	0
  2489  000F9E  6E13               	movwf	(___fldiv@a+1)^0,c
  2490  000FA0  0E00               	movlw	0
  2491  000FA2  6E14               	movwf	(___fldiv@a+2)^0,c
  2492  000FA4  0E00               	movlw	0
  2493  000FA6  6E15               	movwf	(___fldiv@a+3)^0,c
  2494  000FA8                     l2713:
  2495  000FA8  8E14               	bsf	(___fldiv@a+2)^0,7,c
  2496  000FAA  0E00               	movlw	0
  2497  000FAC  6E15               	movwf	(___fldiv@a+3)^0,c
  2498  000FAE  EFE1  F007         	goto	l2719
  2499  000FB2                     l2717:
  2500  000FB2  0E00               	movlw	0
  2501  000FB4  6E12               	movwf	___fldiv@a^0,c
  2502  000FB6  0E00               	movlw	0
  2503  000FB8  6E13               	movwf	(___fldiv@a+1)^0,c
  2504  000FBA  0E00               	movlw	0
  2505  000FBC  6E14               	movwf	(___fldiv@a+2)^0,c
  2506  000FBE  0E00               	movlw	0
  2507  000FC0  6E15               	movwf	(___fldiv@a+3)^0,c
  2508  000FC2                     l2719:
  2509  000FC2  5012               	movf	___fldiv@a^0,w,c
  2510  000FC4  1013               	iorwf	(___fldiv@a+1)^0,w,c
  2511  000FC6  1014               	iorwf	(___fldiv@a+2)^0,w,c
  2512  000FC8  1015               	iorwf	(___fldiv@a+3)^0,w,c
  2513  000FCA  A4D8               	btfss	status,2,c
  2514  000FCC  EFEA  F007         	goto	u2791
  2515  000FD0  EFEC  F007         	goto	u2790
  2516  000FD4                     u2791:
  2517  000FD4  EF04  F008         	goto	l2731
  2518  000FD8                     u2790:
  2519  000FD8  0E00               	movlw	0
  2520  000FDA  6E0E               	movwf	___fldiv@b^0,c
  2521  000FDC  0E00               	movlw	0
  2522  000FDE  6E0F               	movwf	(___fldiv@b+1)^0,c
  2523  000FE0  0E00               	movlw	0
  2524  000FE2  6E10               	movwf	(___fldiv@b+2)^0,c
  2525  000FE4  0E00               	movlw	0
  2526  000FE6  6E11               	movwf	(___fldiv@b+3)^0,c
  2527  000FE8  0E80               	movlw	128
  2528  000FEA  1210               	iorwf	(___fldiv@b+2)^0,f,c
  2529  000FEC  0E7F               	movlw	127
  2530  000FEE  1211               	iorwf	(___fldiv@b+3)^0,f,c
  2531  000FF0                     l2725:
  2532  000FF0  501E               	movf	___fldiv@sign^0,w,c
  2533  000FF2  1211               	iorwf	(___fldiv@b+3)^0,f,c
  2534  000FF4  C00E  F00E         	movff	___fldiv@b,?___fldiv
  2535  000FF8  C00F  F00F         	movff	___fldiv@b+1,?___fldiv+1
  2536  000FFC  C010  F010         	movff	___fldiv@b+2,?___fldiv+2
  2537  001000  C011  F011         	movff	___fldiv@b+3,?___fldiv+3
  2538  001004  EF47  F009         	goto	l702
  2539  001008                     l2731:
  2540  001008  5025               	movf	___fldiv@bexp^0,w,c
  2541  00100A  A4D8               	btfss	status,2,c
  2542  00100C  EF0A  F008         	goto	u2801
  2543  001010  EF0C  F008         	goto	u2800
  2544  001014                     u2801:
  2545  001014  EF16  F008         	goto	l2739
  2546  001018                     u2800:
  2547  001018  0E00               	movlw	0
  2548  00101A  6E0E               	movwf	?___fldiv^0,c
  2549  00101C  0E00               	movlw	0
  2550  00101E  6E0F               	movwf	(?___fldiv+1)^0,c
  2551  001020  0E00               	movlw	0
  2552  001022  6E10               	movwf	(?___fldiv+2)^0,c
  2553  001024  0E00               	movlw	0
  2554  001026  6E11               	movwf	(?___fldiv+3)^0,c
  2555  001028  EF47  F009         	goto	l702
  2556  00102C                     l2739:
  2557  00102C  5026               	movf	___fldiv@aexp^0,w,c
  2558  00102E  C025  F016         	movff	___fldiv@bexp,??___fldiv
  2559  001032  6A17               	clrf	(??___fldiv+1)^0,c
  2560  001034  5E16               	subwf	??___fldiv^0,f,c
  2561  001036  0E00               	movlw	0
  2562  001038  5A17               	subwfb	(??___fldiv+1)^0,f,c
  2563  00103A  0E7F               	movlw	127
  2564  00103C  2416               	addwf	??___fldiv^0,w,c
  2565  00103E  6E1F               	movwf	___fldiv@new_exp^0,c
  2566  001040  0E00               	movlw	0
  2567  001042  2017               	addwfc	(??___fldiv+1)^0,w,c
  2568  001044  6E20               	movwf	(___fldiv@new_exp+1)^0,c
  2569  001046  C00E  F01A         	movff	___fldiv@b,___fldiv@rem
  2570  00104A  C00F  F01B         	movff	___fldiv@b+1,___fldiv@rem+1
  2571  00104E  C010  F01C         	movff	___fldiv@b+2,___fldiv@rem+2
  2572  001052  C011  F01D         	movff	___fldiv@b+3,___fldiv@rem+3
  2573  001056  0E00               	movlw	0
  2574  001058  6E0E               	movwf	___fldiv@b^0,c
  2575  00105A  0E00               	movlw	0
  2576  00105C  6E0F               	movwf	(___fldiv@b+1)^0,c
  2577  00105E  0E00               	movlw	0
  2578  001060  6E10               	movwf	(___fldiv@b+2)^0,c
  2579  001062  0E00               	movlw	0
  2580  001064  6E11               	movwf	(___fldiv@b+3)^0,c
  2581  001066  0E00               	movlw	0
  2582  001068  6E21               	movwf	___fldiv@grs^0,c
  2583  00106A  0E00               	movlw	0
  2584  00106C  6E22               	movwf	(___fldiv@grs+1)^0,c
  2585  00106E  0E00               	movlw	0
  2586  001070  6E23               	movwf	(___fldiv@grs+2)^0,c
  2587  001072  0E00               	movlw	0
  2588  001074  6E24               	movwf	(___fldiv@grs+3)^0,c
  2589  001076  0E00               	movlw	0
  2590  001078  6E26               	movwf	___fldiv@aexp^0,c
  2591  00107A  EF77  F008         	goto	l704
  2592  00107E                     l2749:
  2593  00107E  5026               	movf	___fldiv@aexp^0,w,c
  2594  001080  B4D8               	btfsc	status,2,c
  2595  001082  EF45  F008         	goto	u2811
  2596  001086  EF47  F008         	goto	u2810
  2597  00108A                     u2811:
  2598  00108A  EF5E  F008         	goto	l2757
  2599  00108E                     u2810:
  2600  00108E  90D8               	bcf	status,0,c
  2601  001090  361A               	rlcf	___fldiv@rem^0,f,c
  2602  001092  361B               	rlcf	(___fldiv@rem+1)^0,f,c
  2603  001094  361C               	rlcf	(___fldiv@rem+2)^0,f,c
  2604  001096  361D               	rlcf	(___fldiv@rem+3)^0,f,c
  2605  001098  90D8               	bcf	status,0,c
  2606  00109A  360E               	rlcf	___fldiv@b^0,f,c
  2607  00109C  360F               	rlcf	(___fldiv@b+1)^0,f,c
  2608  00109E  3610               	rlcf	(___fldiv@b+2)^0,f,c
  2609  0010A0  3611               	rlcf	(___fldiv@b+3)^0,f,c
  2610  0010A2  AE24               	btfss	(___fldiv@grs+3)^0,7,c
  2611  0010A4  EF56  F008         	goto	u2821
  2612  0010A8  EF58  F008         	goto	u2820
  2613  0010AC                     u2821:
  2614  0010AC  EF59  F008         	goto	l707
  2615  0010B0                     u2820:
  2616  0010B0  800E               	bsf	___fldiv@b^0,0,c
  2617  0010B2                     l707:
  2618  0010B2  90D8               	bcf	status,0,c
  2619  0010B4  3621               	rlcf	___fldiv@grs^0,f,c
  2620  0010B6  3622               	rlcf	(___fldiv@grs+1)^0,f,c
  2621  0010B8  3623               	rlcf	(___fldiv@grs+2)^0,f,c
  2622  0010BA  3624               	rlcf	(___fldiv@grs+3)^0,f,c
  2623  0010BC                     l2757:
  2624  0010BC  5012               	movf	___fldiv@a^0,w,c
  2625  0010BE  5C1A               	subwf	___fldiv@rem^0,w,c
  2626  0010C0  5013               	movf	(___fldiv@a+1)^0,w,c
  2627  0010C2  581B               	subwfb	(___fldiv@rem+1)^0,w,c
  2628  0010C4  5014               	movf	(___fldiv@a+2)^0,w,c
  2629  0010C6  581C               	subwfb	(___fldiv@rem+2)^0,w,c
  2630  0010C8  5015               	movf	(___fldiv@a+3)^0,w,c
  2631  0010CA  581D               	subwfb	(___fldiv@rem+3)^0,w,c
  2632  0010CC  A0D8               	btfss	status,0,c
  2633  0010CE  EF6B  F008         	goto	u2831
  2634  0010D2  EF6D  F008         	goto	u2830
  2635  0010D6                     u2831:
  2636  0010D6  EF76  F008         	goto	l2763
  2637  0010DA                     u2830:
  2638  0010DA  8C24               	bsf	(___fldiv@grs+3)^0,6,c
  2639  0010DC  5012               	movf	___fldiv@a^0,w,c
  2640  0010DE  5E1A               	subwf	___fldiv@rem^0,f,c
  2641  0010E0  5013               	movf	(___fldiv@a+1)^0,w,c
  2642  0010E2  5A1B               	subwfb	(___fldiv@rem+1)^0,f,c
  2643  0010E4  5014               	movf	(___fldiv@a+2)^0,w,c
  2644  0010E6  5A1C               	subwfb	(___fldiv@rem+2)^0,f,c
  2645  0010E8  5015               	movf	(___fldiv@a+3)^0,w,c
  2646  0010EA  5A1D               	subwfb	(___fldiv@rem+3)^0,f,c
  2647  0010EC                     l2763:
  2648  0010EC  2A26               	incf	___fldiv@aexp^0,f,c
  2649  0010EE                     l704:
  2650  0010EE  0E19               	movlw	25
  2651  0010F0  6426               	cpfsgt	___fldiv@aexp^0,c
  2652  0010F2  EF7D  F008         	goto	u2841
  2653  0010F6  EF7F  F008         	goto	u2840
  2654  0010FA                     u2841:
  2655  0010FA  EF3F  F008         	goto	l2749
  2656  0010FE                     u2840:
  2657  0010FE  501A               	movf	___fldiv@rem^0,w,c
  2658  001100  101B               	iorwf	(___fldiv@rem+1)^0,w,c
  2659  001102  101C               	iorwf	(___fldiv@rem+2)^0,w,c
  2660  001104  101D               	iorwf	(___fldiv@rem+3)^0,w,c
  2661  001106  B4D8               	btfsc	status,2,c
  2662  001108  EF88  F008         	goto	u2851
  2663  00110C  EF8A  F008         	goto	u2850
  2664  001110                     u2851:
  2665  001110  EFA2  F008         	goto	l2775
  2666  001114                     u2850:
  2667  001114  8021               	bsf	___fldiv@grs^0,0,c
  2668  001116  EFA2  F008         	goto	l2775
  2669  00111A                     l2769:
  2670  00111A  90D8               	bcf	status,0,c
  2671  00111C  360E               	rlcf	___fldiv@b^0,f,c
  2672  00111E  360F               	rlcf	(___fldiv@b+1)^0,f,c
  2673  001120  3610               	rlcf	(___fldiv@b+2)^0,f,c
  2674  001122  3611               	rlcf	(___fldiv@b+3)^0,f,c
  2675  001124  AE24               	btfss	(___fldiv@grs+3)^0,7,c
  2676  001126  EF97  F008         	goto	u2861
  2677  00112A  EF99  F008         	goto	u2860
  2678  00112E                     u2861:
  2679  00112E  EF9A  F008         	goto	l713
  2680  001132                     u2860:
  2681  001132  800E               	bsf	___fldiv@b^0,0,c
  2682  001134                     l713:
  2683  001134  90D8               	bcf	status,0,c
  2684  001136  3621               	rlcf	___fldiv@grs^0,f,c
  2685  001138  3622               	rlcf	(___fldiv@grs+1)^0,f,c
  2686  00113A  3623               	rlcf	(___fldiv@grs+2)^0,f,c
  2687  00113C  3624               	rlcf	(___fldiv@grs+3)^0,f,c
  2688  00113E  061F               	decf	___fldiv@new_exp^0,f,c
  2689  001140  A0D8               	btfss	status,0,c
  2690  001142  0620               	decf	(___fldiv@new_exp+1)^0,f,c
  2691  001144                     l2775:
  2692  001144  AE10               	btfss	(___fldiv@b+2)^0,7,c
  2693  001146  EFA7  F008         	goto	u2871
  2694  00114A  EFA9  F008         	goto	u2870
  2695  00114E                     u2871:
  2696  00114E  EF8D  F008         	goto	l2769
  2697  001152                     u2870:
  2698  001152  0E00               	movlw	0
  2699  001154  6E26               	movwf	___fldiv@aexp^0,c
  2700  001156  AE24               	btfss	(___fldiv@grs+3)^0,7,c
  2701  001158  EFB0  F008         	goto	u2881
  2702  00115C  EFB2  F008         	goto	u2880
  2703  001160                     u2881:
  2704  001160  EFD6  F008         	goto	l715
  2705  001164                     u2880:
  2706  001164  0EFF               	movlw	255
  2707  001166  1421               	andwf	___fldiv@grs^0,w,c
  2708  001168  6E16               	movwf	??___fldiv^0,c
  2709  00116A  0EFF               	movlw	255
  2710  00116C  1422               	andwf	(___fldiv@grs+1)^0,w,c
  2711  00116E  6E17               	movwf	(??___fldiv+1)^0,c
  2712  001170  0EFF               	movlw	255
  2713  001172  1423               	andwf	(___fldiv@grs+2)^0,w,c
  2714  001174  6E18               	movwf	(??___fldiv+2)^0,c
  2715  001176  0E7F               	movlw	127
  2716  001178  1424               	andwf	(___fldiv@grs+3)^0,w,c
  2717  00117A  6E19               	movwf	(??___fldiv+3)^0,c
  2718  00117C  5016               	movf	??___fldiv^0,w,c
  2719  00117E  1017               	iorwf	(??___fldiv+1)^0,w,c
  2720  001180  1018               	iorwf	(??___fldiv+2)^0,w,c
  2721  001182  1019               	iorwf	(??___fldiv+3)^0,w,c
  2722  001184  B4D8               	btfsc	status,2,c
  2723  001186  EFC7  F008         	goto	u2891
  2724  00118A  EFC9  F008         	goto	u2890
  2725  00118E                     u2891:
  2726  00118E  EFCD  F008         	goto	l716
  2727  001192                     u2890:
  2728  001192                     l2783:
  2729  001192  0E01               	movlw	1
  2730  001194  6E26               	movwf	___fldiv@aexp^0,c
  2731  001196  EFD6  F008         	goto	l715
  2732  00119A                     l716:
  2733  00119A  A00E               	btfss	___fldiv@b^0,0,c
  2734  00119C  EFD2  F008         	goto	u2901
  2735  0011A0  EFD4  F008         	goto	u2900
  2736  0011A4                     u2901:
  2737  0011A4  EFD6  F008         	goto	l715
  2738  0011A8                     u2900:
  2739  0011A8  EFC9  F008         	goto	l2783
  2740  0011AC                     l715:
  2741  0011AC  5026               	movf	___fldiv@aexp^0,w,c
  2742  0011AE  B4D8               	btfsc	status,2,c
  2743  0011B0  EFDC  F008         	goto	u2911
  2744  0011B4  EFDE  F008         	goto	u2910
  2745  0011B8                     u2911:
  2746  0011B8  EF02  F009         	goto	l2795
  2747  0011BC                     u2910:
  2748  0011BC  0E01               	movlw	1
  2749  0011BE  260E               	addwf	___fldiv@b^0,f,c
  2750  0011C0  0E00               	movlw	0
  2751  0011C2  220F               	addwfc	(___fldiv@b+1)^0,f,c
  2752  0011C4  2210               	addwfc	(___fldiv@b+2)^0,f,c
  2753  0011C6  2211               	addwfc	(___fldiv@b+3)^0,f,c
  2754  0011C8  A011               	btfss	(___fldiv@b+3)^0,0,c
  2755  0011CA  EFE9  F008         	goto	u2921
  2756  0011CE  EFEB  F008         	goto	u2920
  2757  0011D2                     u2921:
  2758  0011D2  EF02  F009         	goto	l2795
  2759  0011D6                     u2920:
  2760  0011D6  C00E  F016         	movff	___fldiv@b,??___fldiv
  2761  0011DA  C00F  F017         	movff	___fldiv@b+1,??___fldiv+1
  2762  0011DE  C010  F018         	movff	___fldiv@b+2,??___fldiv+2
  2763  0011E2  C011  F019         	movff	___fldiv@b+3,??___fldiv+3
  2764  0011E6  3419               	rlcf	(??___fldiv+3)^0,w,c
  2765  0011E8  3219               	rrcf	(??___fldiv+3)^0,f,c
  2766  0011EA  3218               	rrcf	(??___fldiv+2)^0,f,c
  2767  0011EC  3217               	rrcf	(??___fldiv+1)^0,f,c
  2768  0011EE  3216               	rrcf	??___fldiv^0,f,c
  2769  0011F0  C016  F00E         	movff	??___fldiv,___fldiv@b
  2770  0011F4  C017  F00F         	movff	??___fldiv+1,___fldiv@b+1
  2771  0011F8  C018  F010         	movff	??___fldiv+2,___fldiv@b+2
  2772  0011FC  C019  F011         	movff	??___fldiv+3,___fldiv@b+3
  2773  001200  4A1F               	infsnz	___fldiv@new_exp^0,f,c
  2774  001202  2A20               	incf	(___fldiv@new_exp+1)^0,f,c
  2775  001204                     l2795:
  2776  001204  BE20               	btfsc	(___fldiv@new_exp+1)^0,7,c
  2777  001206  EF0D  F009         	goto	u2931
  2778  00120A  5020               	movf	(___fldiv@new_exp+1)^0,w,c
  2779  00120C  E108               	bnz	u2930
  2780  00120E  281F               	incf	___fldiv@new_exp^0,w,c
  2781  001210  A0D8               	btfss	status,0,c
  2782  001212  EF0D  F009         	goto	u2931
  2783  001216  EF0F  F009         	goto	u2930
  2784  00121A                     u2931:
  2785  00121A  EF1A  F009         	goto	l2799
  2786  00121E                     u2930:
  2787  00121E  0E00               	movlw	0
  2788  001220  6E20               	movwf	(___fldiv@new_exp+1)^0,c
  2789  001222  681F               	setf	___fldiv@new_exp^0,c
  2790  001224  0E00               	movlw	0
  2791  001226  6E0E               	movwf	___fldiv@b^0,c
  2792  001228  0E00               	movlw	0
  2793  00122A  6E0F               	movwf	(___fldiv@b+1)^0,c
  2794  00122C  0E00               	movlw	0
  2795  00122E  6E10               	movwf	(___fldiv@b+2)^0,c
  2796  001230  0E00               	movlw	0
  2797  001232  6E11               	movwf	(___fldiv@b+3)^0,c
  2798  001234                     l2799:
  2799  001234  BE20               	btfsc	(___fldiv@new_exp+1)^0,7,c
  2800  001236  EF27  F009         	goto	u2940
  2801  00123A  5020               	movf	(___fldiv@new_exp+1)^0,w,c
  2802  00123C  E106               	bnz	u2941
  2803  00123E  041F               	decf	___fldiv@new_exp^0,w,c
  2804  001240  B0D8               	btfsc	status,0,c
  2805  001242  EF25  F009         	goto	u2941
  2806  001246  EF27  F009         	goto	u2940
  2807  00124A                     u2941:
  2808  00124A  EF35  F009         	goto	l2803
  2809  00124E                     u2940:
  2810  00124E  0E00               	movlw	0
  2811  001250  6E20               	movwf	(___fldiv@new_exp+1)^0,c
  2812  001252  0E00               	movlw	0
  2813  001254  6E1F               	movwf	___fldiv@new_exp^0,c
  2814  001256  0E00               	movlw	0
  2815  001258  6E0E               	movwf	___fldiv@b^0,c
  2816  00125A  0E00               	movlw	0
  2817  00125C  6E0F               	movwf	(___fldiv@b+1)^0,c
  2818  00125E  0E00               	movlw	0
  2819  001260  6E10               	movwf	(___fldiv@b+2)^0,c
  2820  001262  0E00               	movlw	0
  2821  001264  6E11               	movwf	(___fldiv@b+3)^0,c
  2822  001266  0E00               	movlw	0
  2823  001268  6E1E               	movwf	___fldiv@sign^0,c
  2824  00126A                     l2803:
  2825  00126A  C01F  F025         	movff	___fldiv@new_exp,___fldiv@bexp
  2826  00126E  A025               	btfss	___fldiv@bexp^0,0,c
  2827  001270  EF3C  F009         	goto	u2951
  2828  001274  EF3E  F009         	goto	u2950
  2829  001278                     u2951:
  2830  001278  EF41  F009         	goto	l2809
  2831  00127C                     u2950:
  2832  00127C  8E10               	bsf	(___fldiv@b+2)^0,7,c
  2833  00127E  EF42  F009         	goto	l2811
  2834  001282                     l2809:
  2835  001282  9E10               	bcf	(___fldiv@b+2)^0,7,c
  2836  001284                     l2811:
  2837  001284  90D8               	bcf	status,0,c
  2838  001286  3025               	rrcf	___fldiv@bexp^0,w,c
  2839  001288  6E11               	movwf	(___fldiv@b+3)^0,c
  2840  00128A  EFF8  F007         	goto	l2725
  2841  00128E                     l702:
  2842  00128E  0012               	return		;funcret
  2843  001290                     __end_of___fldiv:
  2844                           	opt callstack 0
  2845                           
  2846 ;; *************** function ___fladd *****************
  2847 ;; Defined at:
  2848 ;;		line 10 in file "C:\Program Files (x86)\Microchip\xc8\v2.10\pic\sources\c99\common\sprcadd.c"
  2849 ;; Parameters:    Size  Location     Type
  2850 ;;  b               4   27[COMRAM] unsigned char 
  2851 ;;  a               4   31[COMRAM] unsigned char 
  2852 ;; Auto vars:     Size  Location     Type
  2853 ;;  grs             1   42[COMRAM] unsigned char 
  2854 ;;  bexp            1   41[COMRAM] unsigned char 
  2855 ;;  aexp            1   40[COMRAM] unsigned char 
  2856 ;;  signs           1   39[COMRAM] unsigned char 
  2857 ;; Return value:  Size  Location     Type
  2858 ;;                  4   27[COMRAM] unsigned char 
  2859 ;; Registers used:
  2860 ;;		wreg, status,2, status,0
  2861 ;; Tracked objects:
  2862 ;;		On entry : 0/0
  2863 ;;		On exit  : 0/0
  2864 ;;		Unchanged: 0/0
  2865 ;; Data sizes:     COMRAM   BANK0   BANK1   BANK2   BANK3   BANK4   BANK5
  2866 ;;      Params:         8       0       0       0       0       0       0
  2867 ;;      Locals:         4       0       0       0       0       0       0
  2868 ;;      Temps:          4       0       0       0       0       0       0
  2869 ;;      Totals:        16       0       0       0       0       0       0
  2870 ;;Total ram usage:       16 bytes
  2871 ;; Hardware stack levels used:    1
  2872 ;; Hardware stack levels required when called:    3
  2873 ;; This function calls:
  2874 ;;		Nothing
  2875 ;; This function is called by:
  2876 ;;		_SetDutyCycleTo
  2877 ;; This function uses a non-reentrant model
  2878 ;;
  2879                           
  2880                           	psect	text11
  2881  00060C                     __ptext11:
  2882                           	opt callstack 0
  2883  00060C                     ___fladd:
  2884                           	opt callstack 26
  2885  00060C  501F               	movf	(___fladd@b+3)^0,w,c
  2886  00060E  0B80               	andlw	128
  2887  000610  6E28               	movwf	___fladd@signs^0,c
  2888  000612  501F               	movf	(___fladd@b+3)^0,w,c
  2889  000614  241F               	addwf	(___fladd@b+3)^0,w,c
  2890  000616  6E2A               	movwf	___fladd@bexp^0,c
  2891  000618  AE1E               	btfss	(___fladd@b+2)^0,7,c
  2892  00061A  EF11  F003         	goto	u2341
  2893  00061E  EF13  F003         	goto	u2340
  2894  000622                     u2341:
  2895  000622  EF14  F003         	goto	l2485
  2896  000626                     u2340:
  2897  000626  802A               	bsf	___fladd@bexp^0,0,c
  2898  000628                     l2485:
  2899  000628  502A               	movf	___fladd@bexp^0,w,c
  2900  00062A  B4D8               	btfsc	status,2,c
  2901  00062C  EF1A  F003         	goto	u2351
  2902  000630  EF1C  F003         	goto	u2350
  2903  000634                     u2351:
  2904  000634  EF31  F003         	goto	l2495
  2905  000638                     u2350:
  2906  000638  282A               	incf	___fladd@bexp^0,w,c
  2907  00063A  A4D8               	btfss	status,2,c
  2908  00063C  EF22  F003         	goto	u2361
  2909  000640  EF24  F003         	goto	u2360
  2910  000644                     u2361:
  2911  000644  EF2C  F003         	goto	l2491
  2912  000648                     u2360:
  2913  000648  0E00               	movlw	0
  2914  00064A  6E1C               	movwf	___fladd@b^0,c
  2915  00064C  0E00               	movlw	0
  2916  00064E  6E1D               	movwf	(___fladd@b+1)^0,c
  2917  000650  0E00               	movlw	0
  2918  000652  6E1E               	movwf	(___fladd@b+2)^0,c
  2919  000654  0E00               	movlw	0
  2920  000656  6E1F               	movwf	(___fladd@b+3)^0,c
  2921  000658                     l2491:
  2922  000658  8E1E               	bsf	(___fladd@b+2)^0,7,c
  2923  00065A  0E00               	movlw	0
  2924  00065C  6E1F               	movwf	(___fladd@b+3)^0,c
  2925  00065E  EF39  F003         	goto	l2497
  2926  000662                     l2495:
  2927  000662  0E00               	movlw	0
  2928  000664  6E1C               	movwf	___fladd@b^0,c
  2929  000666  0E00               	movlw	0
  2930  000668  6E1D               	movwf	(___fladd@b+1)^0,c
  2931  00066A  0E00               	movlw	0
  2932  00066C  6E1E               	movwf	(___fladd@b+2)^0,c
  2933  00066E  0E00               	movlw	0
  2934  000670  6E1F               	movwf	(___fladd@b+3)^0,c
  2935  000672                     l2497:
  2936  000672  5023               	movf	(___fladd@a+3)^0,w,c
  2937  000674  0B80               	andlw	128
  2938  000676  6E29               	movwf	___fladd@aexp^0,c
  2939  000678  5028               	movf	___fladd@signs^0,w,c
  2940  00067A  1829               	xorwf	___fladd@aexp^0,w,c
  2941  00067C  B4D8               	btfsc	status,2,c
  2942  00067E  EF43  F003         	goto	u2371
  2943  000682  EF45  F003         	goto	u2370
  2944  000686                     u2371:
  2945  000686  EF46  F003         	goto	l2503
  2946  00068A                     u2370:
  2947  00068A  8C28               	bsf	___fladd@signs^0,6,c
  2948  00068C                     l2503:
  2949  00068C  5023               	movf	(___fladd@a+3)^0,w,c
  2950  00068E  2423               	addwf	(___fladd@a+3)^0,w,c
  2951  000690  6E29               	movwf	___fladd@aexp^0,c
  2952  000692  AE22               	btfss	(___fladd@a+2)^0,7,c
  2953  000694  EF4E  F003         	goto	u2381
  2954  000698  EF50  F003         	goto	u2380
  2955  00069C                     u2381:
  2956  00069C  EF51  F003         	goto	l2509
  2957  0006A0                     u2380:
  2958  0006A0  8029               	bsf	___fladd@aexp^0,0,c
  2959  0006A2                     l2509:
  2960  0006A2  5029               	movf	___fladd@aexp^0,w,c
  2961  0006A4  B4D8               	btfsc	status,2,c
  2962  0006A6  EF57  F003         	goto	u2391
  2963  0006AA  EF59  F003         	goto	u2390
  2964  0006AE                     u2391:
  2965  0006AE  EF6E  F003         	goto	l2519
  2966  0006B2                     u2390:
  2967  0006B2  2829               	incf	___fladd@aexp^0,w,c
  2968  0006B4  A4D8               	btfss	status,2,c
  2969  0006B6  EF5F  F003         	goto	u2401
  2970  0006BA  EF61  F003         	goto	u2400
  2971  0006BE                     u2401:
  2972  0006BE  EF69  F003         	goto	l2515
  2973  0006C2                     u2400:
  2974  0006C2  0E00               	movlw	0
  2975  0006C4  6E20               	movwf	___fladd@a^0,c
  2976  0006C6  0E00               	movlw	0
  2977  0006C8  6E21               	movwf	(___fladd@a+1)^0,c
  2978  0006CA  0E00               	movlw	0
  2979  0006CC  6E22               	movwf	(___fladd@a+2)^0,c
  2980  0006CE  0E00               	movlw	0
  2981  0006D0  6E23               	movwf	(___fladd@a+3)^0,c
  2982  0006D2                     l2515:
  2983  0006D2  8E22               	bsf	(___fladd@a+2)^0,7,c
  2984  0006D4  0E00               	movlw	0
  2985  0006D6  6E23               	movwf	(___fladd@a+3)^0,c
  2986  0006D8  EF76  F003         	goto	l2521
  2987  0006DC                     l2519:
  2988  0006DC  0E00               	movlw	0
  2989  0006DE  6E20               	movwf	___fladd@a^0,c
  2990  0006E0  0E00               	movlw	0
  2991  0006E2  6E21               	movwf	(___fladd@a+1)^0,c
  2992  0006E4  0E00               	movlw	0
  2993  0006E6  6E22               	movwf	(___fladd@a+2)^0,c
  2994  0006E8  0E00               	movlw	0
  2995  0006EA  6E23               	movwf	(___fladd@a+3)^0,c
  2996  0006EC                     l2521:
  2997  0006EC  502A               	movf	___fladd@bexp^0,w,c
  2998  0006EE  5C29               	subwf	___fladd@aexp^0,w,c
  2999  0006F0  B0D8               	btfsc	status,0,c
  3000  0006F2  EF7D  F003         	goto	u2411
  3001  0006F6  EF7F  F003         	goto	u2410
  3002  0006FA                     u2411:
  3003  0006FA  EFA6  F003         	goto	l2557
  3004  0006FE                     u2410:
  3005  0006FE  AC28               	btfss	___fladd@signs^0,6,c
  3006  000700  EF84  F003         	goto	u2421
  3007  000704  EF86  F003         	goto	u2420
  3008  000708                     u2421:
  3009  000708  EF88  F003         	goto	l2527
  3010  00070C                     u2420:
  3011  00070C  0E80               	movlw	128
  3012  00070E  1A28               	xorwf	___fladd@signs^0,f,c
  3013  000710                     l2527:
  3014  000710  C02A  F02B         	movff	___fladd@bexp,___fladd@grs
  3015  000714  C029  F02A         	movff	___fladd@aexp,___fladd@bexp
  3016  000718  C02B  F029         	movff	___fladd@grs,___fladd@aexp
  3017  00071C  C01C  F02B         	movff	___fladd@b,___fladd@grs
  3018  000720  C020  F01C         	movff	___fladd@a,___fladd@b
  3019  000724  C02B  F020         	movff	___fladd@grs,___fladd@a
  3020  000728  C01D  F02B         	movff	___fladd@b+1,___fladd@grs
  3021  00072C  C021  F01D         	movff	___fladd@a+1,___fladd@b+1
  3022  000730  C02B  F021         	movff	___fladd@grs,___fladd@a+1
  3023  000734  C01E  F02B         	movff	___fladd@b+2,___fladd@grs
  3024  000738  C022  F01E         	movff	___fladd@a+2,___fladd@b+2
  3025  00073C  C02B  F022         	movff	___fladd@grs,___fladd@a+2
  3026  000740  C01F  F02B         	movff	___fladd@b+3,___fladd@grs
  3027  000744  C023  F01F         	movff	___fladd@a+3,___fladd@b+3
  3028  000748  C02B  F023         	movff	___fladd@grs,___fladd@a+3
  3029  00074C                     l2557:
  3030  00074C  0E00               	movlw	0
  3031  00074E  6E2B               	movwf	___fladd@grs^0,c
  3032  000750  502A               	movf	___fladd@bexp^0,w,c
  3033  000752  C029  F024         	movff	___fladd@aexp,??___fladd
  3034  000756  6A25               	clrf	(??___fladd+1)^0,c
  3035  000758  5E24               	subwf	??___fladd^0,f,c
  3036  00075A  0E00               	movlw	0
  3037  00075C  5A25               	subwfb	(??___fladd+1)^0,f,c
  3038  00075E  BE25               	btfsc	(??___fladd+1)^0,7,c
  3039  000760  EFBB  F003         	goto	u2431
  3040  000764  5025               	movf	(??___fladd+1)^0,w,c
  3041  000766  E109               	bnz	u2430
  3042  000768  0E1A               	movlw	26
  3043  00076A  5C24               	subwf	??___fladd^0,w,c
  3044  00076C  A0D8               	btfss	status,0,c
  3045  00076E  EFBB  F003         	goto	u2431
  3046  000772  EFBD  F003         	goto	u2430
  3047  000776                     u2431:
  3048  000776  EFF4  F003         	goto	l649
  3049  00077A                     u2430:
  3050  00077A  501C               	movf	___fladd@b^0,w,c
  3051  00077C  101D               	iorwf	(___fladd@b+1)^0,w,c
  3052  00077E  101E               	iorwf	(___fladd@b+2)^0,w,c
  3053  000780  101F               	iorwf	(___fladd@b+3)^0,w,c
  3054  000782  A4D8               	btfss	status,2,c
  3055  000784  EFC6  F003         	goto	u2441
  3056  000788  EFC9  F003         	goto	u2440
  3057  00078C                     u2441:
  3058  00078C  0E01               	movlw	1
  3059  00078E  EFCA  F003         	goto	u2450
  3060  000792                     u2440:
  3061  000792  0E00               	movlw	0
  3062  000794                     u2450:
  3063  000794  6E2B               	movwf	___fladd@grs^0,c
  3064  000796  0E00               	movlw	0
  3065  000798  6E1C               	movwf	___fladd@b^0,c
  3066  00079A  0E00               	movlw	0
  3067  00079C  6E1D               	movwf	(___fladd@b+1)^0,c
  3068  00079E  0E00               	movlw	0
  3069  0007A0  6E1E               	movwf	(___fladd@b+2)^0,c
  3070  0007A2  0E00               	movlw	0
  3071  0007A4  6E1F               	movwf	(___fladd@b+3)^0,c
  3072  0007A6  C029  F02A         	movff	___fladd@aexp,___fladd@bexp
  3073  0007AA  EFFD  F003         	goto	l648
  3074  0007AE                     l650:
  3075  0007AE  A02B               	btfss	___fladd@grs^0,0,c
  3076  0007B0  EFDC  F003         	goto	u2461
  3077  0007B4  EFDE  F003         	goto	u2460
  3078  0007B8                     u2461:
  3079  0007B8  EFE4  F003         	goto	l2569
  3080  0007BC                     u2460:
  3081  0007BC  90D8               	bcf	status,0,c
  3082  0007BE  302B               	rrcf	___fladd@grs^0,w,c
  3083  0007C0  0901               	iorlw	1
  3084  0007C2  6E2B               	movwf	___fladd@grs^0,c
  3085  0007C4  EFE6  F003         	goto	l2571
  3086  0007C8                     l2569:
  3087  0007C8  90D8               	bcf	status,0,c
  3088  0007CA  322B               	rrcf	___fladd@grs^0,f,c
  3089  0007CC                     l2571:
  3090  0007CC  A01C               	btfss	___fladd@b^0,0,c
  3091  0007CE  EFEB  F003         	goto	u2471
  3092  0007D2  EFED  F003         	goto	u2470
  3093  0007D6                     u2471:
  3094  0007D6  EFEE  F003         	goto	l2575
  3095  0007DA                     u2470:
  3096  0007DA  8E2B               	bsf	___fladd@grs^0,7,c
  3097  0007DC                     l2575:
  3098  0007DC  341F               	rlcf	(___fladd@b+3)^0,w,c
  3099  0007DE  321F               	rrcf	(___fladd@b+3)^0,f,c
  3100  0007E0  321E               	rrcf	(___fladd@b+2)^0,f,c
  3101  0007E2  321D               	rrcf	(___fladd@b+1)^0,f,c
  3102  0007E4  321C               	rrcf	___fladd@b^0,f,c
  3103  0007E6  2A2A               	incf	___fladd@bexp^0,f,c
  3104  0007E8                     l649:
  3105  0007E8  5029               	movf	___fladd@aexp^0,w,c
  3106  0007EA  5C2A               	subwf	___fladd@bexp^0,w,c
  3107  0007EC  A0D8               	btfss	status,0,c
  3108  0007EE  EFFB  F003         	goto	u2481
  3109  0007F2  EFFD  F003         	goto	u2480
  3110  0007F6                     u2481:
  3111  0007F6  EFD7  F003         	goto	l650
  3112  0007FA                     u2480:
  3113  0007FA                     l648:
  3114  0007FA  BC28               	btfsc	___fladd@signs^0,6,c
  3115  0007FC  EF02  F004         	goto	u2491
  3116  000800  EF04  F004         	goto	u2490
  3117  000804                     u2491:
  3118  000804  EF44  F004         	goto	l2603
  3119  000808                     u2490:
  3120  000808  502A               	movf	___fladd@bexp^0,w,c
  3121  00080A  A4D8               	btfss	status,2,c
  3122  00080C  EF0A  F004         	goto	u2501
  3123  000810  EF0C  F004         	goto	u2500
  3124  000814                     u2501:
  3125  000814  EF16  F004         	goto	l2585
  3126  000818                     u2500:
  3127  000818  0E00               	movlw	0
  3128  00081A  6E1C               	movwf	?___fladd^0,c
  3129  00081C  0E00               	movlw	0
  3130  00081E  6E1D               	movwf	(?___fladd+1)^0,c
  3131  000820  0E00               	movlw	0
  3132  000822  6E1E               	movwf	(?___fladd+2)^0,c
  3133  000824  0E00               	movlw	0
  3134  000826  6E1F               	movwf	(?___fladd+3)^0,c
  3135  000828  EF65  F005         	goto	l657
  3136  00082C                     l2585:
  3137  00082C  5020               	movf	___fladd@a^0,w,c
  3138  00082E  261C               	addwf	___fladd@b^0,f,c
  3139  000830  5021               	movf	(___fladd@a+1)^0,w,c
  3140  000832  221D               	addwfc	(___fladd@b+1)^0,f,c
  3141  000834  5022               	movf	(___fladd@a+2)^0,w,c
  3142  000836  221E               	addwfc	(___fladd@b+2)^0,f,c
  3143  000838  5023               	movf	(___fladd@a+3)^0,w,c
  3144  00083A  221F               	addwfc	(___fladd@b+3)^0,f,c
  3145  00083C  A01F               	btfss	(___fladd@b+3)^0,0,c
  3146  00083E  EF23  F004         	goto	u2511
  3147  000842  EF25  F004         	goto	u2510
  3148  000846                     u2511:
  3149  000846  EFD1  F004         	goto	l2639
  3150  00084A                     u2510:
  3151  00084A  A02B               	btfss	___fladd@grs^0,0,c
  3152  00084C  EF2A  F004         	goto	u2521
  3153  000850  EF2C  F004         	goto	u2520
  3154  000854                     u2521:
  3155  000854  EF32  F004         	goto	l2593
  3156  000858                     u2520:
  3157  000858  90D8               	bcf	status,0,c
  3158  00085A  302B               	rrcf	___fladd@grs^0,w,c
  3159  00085C  0901               	iorlw	1
  3160  00085E  6E2B               	movwf	___fladd@grs^0,c
  3161  000860  EF34  F004         	goto	l2595
  3162  000864                     l2593:
  3163  000864  90D8               	bcf	status,0,c
  3164  000866  322B               	rrcf	___fladd@grs^0,f,c
  3165  000868                     l2595:
  3166  000868  A01C               	btfss	___fladd@b^0,0,c
  3167  00086A  EF39  F004         	goto	u2531
  3168  00086E  EF3B  F004         	goto	u2530
  3169  000872                     u2531:
  3170  000872  EF3C  F004         	goto	l2599
  3171  000876                     u2530:
  3172  000876  8E2B               	bsf	___fladd@grs^0,7,c
  3173  000878                     l2599:
  3174  000878  341F               	rlcf	(___fladd@b+3)^0,w,c
  3175  00087A  321F               	rrcf	(___fladd@b+3)^0,f,c
  3176  00087C  321E               	rrcf	(___fladd@b+2)^0,f,c
  3177  00087E  321D               	rrcf	(___fladd@b+1)^0,f,c
  3178  000880  321C               	rrcf	___fladd@b^0,f,c
  3179  000882  2A2A               	incf	___fladd@bexp^0,f,c
  3180  000884  EFD1  F004         	goto	l2639
  3181  000888                     l2603:
  3182  000888  5020               	movf	___fladd@a^0,w,c
  3183  00088A  5C1C               	subwf	___fladd@b^0,w,c
  3184  00088C  5021               	movf	(___fladd@a+1)^0,w,c
  3185  00088E  581D               	subwfb	(___fladd@b+1)^0,w,c
  3186  000890  5022               	movf	(___fladd@a+2)^0,w,c
  3187  000892  581E               	subwfb	(___fladd@b+2)^0,w,c
  3188  000894  501F               	movf	(___fladd@b+3)^0,w,c
  3189  000896  0A80               	xorlw	128
  3190  000898  6E24               	movwf	??___fladd^0,c
  3191  00089A  5023               	movf	(___fladd@a+3)^0,w,c
  3192  00089C  0A80               	xorlw	128
  3193  00089E  5824               	subwfb	??___fladd^0,w,c
  3194  0008A0  B0D8               	btfsc	status,0,c
  3195  0008A2  EF55  F004         	goto	u2541
  3196  0008A6  EF57  F004         	goto	u2540
  3197  0008AA                     u2541:
  3198  0008AA  EF82  F004         	goto	l2613
  3199  0008AE                     u2540:
  3200  0008AE  501C               	movf	___fladd@b^0,w,c
  3201  0008B0  5C20               	subwf	___fladd@a^0,w,c
  3202  0008B2  6E24               	movwf	??___fladd^0,c
  3203  0008B4  501D               	movf	(___fladd@b+1)^0,w,c
  3204  0008B6  5821               	subwfb	(___fladd@a+1)^0,w,c
  3205  0008B8  6E25               	movwf	(??___fladd+1)^0,c
  3206  0008BA  501E               	movf	(___fladd@b+2)^0,w,c
  3207  0008BC  5822               	subwfb	(___fladd@a+2)^0,w,c
  3208  0008BE  6E26               	movwf	(??___fladd+2)^0,c
  3209  0008C0  501F               	movf	(___fladd@b+3)^0,w,c
  3210  0008C2  5823               	subwfb	(___fladd@a+3)^0,w,c
  3211  0008C4  6E27               	movwf	(??___fladd+3)^0,c
  3212  0008C6  0EFF               	movlw	255
  3213  0008C8  2424               	addwf	??___fladd^0,w,c
  3214  0008CA  6E1C               	movwf	___fladd@b^0,c
  3215  0008CC  0EFF               	movlw	255
  3216  0008CE  2025               	addwfc	(??___fladd+1)^0,w,c
  3217  0008D0  6E1D               	movwf	(___fladd@b+1)^0,c
  3218  0008D2  0EFF               	movlw	255
  3219  0008D4  2026               	addwfc	(??___fladd+2)^0,w,c
  3220  0008D6  6E1E               	movwf	(___fladd@b+2)^0,c
  3221  0008D8  0EFF               	movlw	255
  3222  0008DA  2027               	addwfc	(??___fladd+3)^0,w,c
  3223  0008DC  6E1F               	movwf	(___fladd@b+3)^0,c
  3224  0008DE  0E80               	movlw	128
  3225  0008E0  1A28               	xorwf	___fladd@signs^0,f,c
  3226  0008E2  6C2B               	negf	___fladd@grs^0,c
  3227  0008E4  502B               	movf	___fladd@grs^0,w,c
  3228  0008E6  A4D8               	btfss	status,2,c
  3229  0008E8  EF78  F004         	goto	u2551
  3230  0008EC  EF7A  F004         	goto	u2550
  3231  0008F0                     u2551:
  3232  0008F0  EF8A  F004         	goto	l665
  3233  0008F4                     u2550:
  3234  0008F4  0E01               	movlw	1
  3235  0008F6  261C               	addwf	___fladd@b^0,f,c
  3236  0008F8  0E00               	movlw	0
  3237  0008FA  221D               	addwfc	(___fladd@b+1)^0,f,c
  3238  0008FC  221E               	addwfc	(___fladd@b+2)^0,f,c
  3239  0008FE  221F               	addwfc	(___fladd@b+3)^0,f,c
  3240  000900  EF8A  F004         	goto	l665
  3241  000904                     l2613:
  3242  000904  5020               	movf	___fladd@a^0,w,c
  3243  000906  5E1C               	subwf	___fladd@b^0,f,c
  3244  000908  5021               	movf	(___fladd@a+1)^0,w,c
  3245  00090A  5A1D               	subwfb	(___fladd@b+1)^0,f,c
  3246  00090C  5022               	movf	(___fladd@a+2)^0,w,c
  3247  00090E  5A1E               	subwfb	(___fladd@b+2)^0,f,c
  3248  000910  5023               	movf	(___fladd@a+3)^0,w,c
  3249  000912  5A1F               	subwfb	(___fladd@b+3)^0,f,c
  3250  000914                     l665:
  3251  000914  501C               	movf	___fladd@b^0,w,c
  3252  000916  101D               	iorwf	(___fladd@b+1)^0,w,c
  3253  000918  101E               	iorwf	(___fladd@b+2)^0,w,c
  3254  00091A  101F               	iorwf	(___fladd@b+3)^0,w,c
  3255  00091C  A4D8               	btfss	status,2,c
  3256  00091E  EF93  F004         	goto	u2561
  3257  000922  EF95  F004         	goto	u2560
  3258  000926                     u2561:
  3259  000926  EFCA  F004         	goto	l2637
  3260  00092A                     u2560:
  3261  00092A  502B               	movf	___fladd@grs^0,w,c
  3262  00092C  A4D8               	btfss	status,2,c
  3263  00092E  EF9B  F004         	goto	u2571
  3264  000932  EF9D  F004         	goto	u2570
  3265  000936                     u2571:
  3266  000936  EFCA  F004         	goto	l2637
  3267  00093A                     u2570:
  3268  00093A  0E00               	movlw	0
  3269  00093C  6E1C               	movwf	?___fladd^0,c
  3270  00093E  0E00               	movlw	0
  3271  000940  6E1D               	movwf	(?___fladd+1)^0,c
  3272  000942  0E00               	movlw	0
  3273  000944  6E1E               	movwf	(?___fladd+2)^0,c
  3274  000946  0E00               	movlw	0
  3275  000948  6E1F               	movwf	(?___fladd+3)^0,c
  3276  00094A  EF65  F005         	goto	l657
  3277  00094E                     l2621:
  3278  00094E  90D8               	bcf	status,0,c
  3279  000950  361C               	rlcf	___fladd@b^0,f,c
  3280  000952  361D               	rlcf	(___fladd@b+1)^0,f,c
  3281  000954  361E               	rlcf	(___fladd@b+2)^0,f,c
  3282  000956  361F               	rlcf	(___fladd@b+3)^0,f,c
  3283  000958  AE2B               	btfss	___fladd@grs^0,7,c
  3284  00095A  EFB1  F004         	goto	u2581
  3285  00095E  EFB3  F004         	goto	u2580
  3286  000962                     u2581:
  3287  000962  EFB4  F004         	goto	l2627
  3288  000966                     u2580:
  3289  000966  801C               	bsf	___fladd@b^0,0,c
  3290  000968                     l2627:
  3291  000968  A02B               	btfss	___fladd@grs^0,0,c
  3292  00096A  EFB9  F004         	goto	u2591
  3293  00096E  EFBB  F004         	goto	u2590
  3294  000972                     u2591:
  3295  000972  EFBF  F004         	goto	l2631
  3296  000976                     u2590:
  3297  000976  80D8               	bsf	status,0,c
  3298  000978  362B               	rlcf	___fladd@grs^0,f,c
  3299  00097A  EFC1  F004         	goto	l2633
  3300  00097E                     l2631:
  3301  00097E  90D8               	bcf	status,0,c
  3302  000980  362B               	rlcf	___fladd@grs^0,f,c
  3303  000982                     l2633:
  3304  000982  502A               	movf	___fladd@bexp^0,w,c
  3305  000984  B4D8               	btfsc	status,2,c
  3306  000986  EFC7  F004         	goto	u2601
  3307  00098A  EFC9  F004         	goto	u2600
  3308  00098E                     u2601:
  3309  00098E  EFCA  F004         	goto	l2637
  3310  000992                     u2600:
  3311  000992  062A               	decf	___fladd@bexp^0,f,c
  3312  000994                     l2637:
  3313  000994  AE1E               	btfss	(___fladd@b+2)^0,7,c
  3314  000996  EFCF  F004         	goto	u2611
  3315  00099A  EFD1  F004         	goto	u2610
  3316  00099E                     u2611:
  3317  00099E  EFA7  F004         	goto	l2621
  3318  0009A2                     u2610:
  3319  0009A2                     l2639:
  3320  0009A2  0E00               	movlw	0
  3321  0009A4  6E29               	movwf	___fladd@aexp^0,c
  3322  0009A6  AE2B               	btfss	___fladd@grs^0,7,c
  3323  0009A8  EFD8  F004         	goto	u2621
  3324  0009AC  EFDA  F004         	goto	u2620
  3325  0009B0                     u2621:
  3326  0009B0  EFF2  F004         	goto	l674
  3327  0009B4                     u2620:
  3328  0009B4  C02B  F024         	movff	___fladd@grs,??___fladd
  3329  0009B8  0E7F               	movlw	127
  3330  0009BA  1624               	andwf	??___fladd^0,f,c
  3331  0009BC  B4D8               	btfsc	status,2,c
  3332  0009BE  EFE3  F004         	goto	u2631
  3333  0009C2  EFE5  F004         	goto	u2630
  3334  0009C6                     u2631:
  3335  0009C6  EFE9  F004         	goto	l675
  3336  0009CA                     u2630:
  3337  0009CA                     l2645:
  3338  0009CA  0E01               	movlw	1
  3339  0009CC  6E29               	movwf	___fladd@aexp^0,c
  3340  0009CE  EFF2  F004         	goto	l674
  3341  0009D2                     l675:
  3342  0009D2  A01C               	btfss	___fladd@b^0,0,c
  3343  0009D4  EFEE  F004         	goto	u2641
  3344  0009D8  EFF0  F004         	goto	u2640
  3345  0009DC                     u2641:
  3346  0009DC  EFF2  F004         	goto	l674
  3347  0009E0                     u2640:
  3348  0009E0  EFE5  F004         	goto	l2645
  3349  0009E4                     l674:
  3350  0009E4  5029               	movf	___fladd@aexp^0,w,c
  3351  0009E6  B4D8               	btfsc	status,2,c
  3352  0009E8  EFF8  F004         	goto	u2651
  3353  0009EC  EFFA  F004         	goto	u2650
  3354  0009F0                     u2651:
  3355  0009F0  EF25  F005         	goto	l2657
  3356  0009F4                     u2650:
  3357  0009F4  0E01               	movlw	1
  3358  0009F6  261C               	addwf	___fladd@b^0,f,c
  3359  0009F8  0E00               	movlw	0
  3360  0009FA  221D               	addwfc	(___fladd@b+1)^0,f,c
  3361  0009FC  221E               	addwfc	(___fladd@b+2)^0,f,c
  3362  0009FE  221F               	addwfc	(___fladd@b+3)^0,f,c
  3363  000A00  A01F               	btfss	(___fladd@b+3)^0,0,c
  3364  000A02  EF05  F005         	goto	u2661
  3365  000A06  EF07  F005         	goto	u2660
  3366  000A0A                     u2661:
  3367  000A0A  EF25  F005         	goto	l2657
  3368  000A0E                     u2660:
  3369  000A0E  C01C  F024         	movff	___fladd@b,??___fladd
  3370  000A12  C01D  F025         	movff	___fladd@b+1,??___fladd+1
  3371  000A16  C01E  F026         	movff	___fladd@b+2,??___fladd+2
  3372  000A1A  C01F  F027         	movff	___fladd@b+3,??___fladd+3
  3373  000A1E  3427               	rlcf	(??___fladd+3)^0,w,c
  3374  000A20  3227               	rrcf	(??___fladd+3)^0,f,c
  3375  000A22  3226               	rrcf	(??___fladd+2)^0,f,c
  3376  000A24  3225               	rrcf	(??___fladd+1)^0,f,c
  3377  000A26  3224               	rrcf	??___fladd^0,f,c
  3378  000A28  C024  F01C         	movff	??___fladd,___fladd@b
  3379  000A2C  C025  F01D         	movff	??___fladd+1,___fladd@b+1
  3380  000A30  C026  F01E         	movff	??___fladd+2,___fladd@b+2
  3381  000A34  C027  F01F         	movff	??___fladd+3,___fladd@b+3
  3382  000A38  282A               	incf	___fladd@bexp^0,w,c
  3383  000A3A  B4D8               	btfsc	status,2,c
  3384  000A3C  EF22  F005         	goto	u2671
  3385  000A40  EF24  F005         	goto	u2670
  3386  000A44                     u2671:
  3387  000A44  EF25  F005         	goto	l2657
  3388  000A48                     u2670:
  3389  000A48  2A2A               	incf	___fladd@bexp^0,f,c
  3390  000A4A                     l2657:
  3391  000A4A  282A               	incf	___fladd@bexp^0,w,c
  3392  000A4C  B4D8               	btfsc	status,2,c
  3393  000A4E  EF2B  F005         	goto	u2681
  3394  000A52  EF2D  F005         	goto	u2680
  3395  000A56                     u2681:
  3396  000A56  EF35  F005         	goto	l2661
  3397  000A5A                     u2680:
  3398  000A5A  502A               	movf	___fladd@bexp^0,w,c
  3399  000A5C  A4D8               	btfss	status,2,c
  3400  000A5E  EF33  F005         	goto	u2691
  3401  000A62  EF35  F005         	goto	u2690
  3402  000A66                     u2691:
  3403  000A66  EF47  F005         	goto	l2665
  3404  000A6A                     u2690:
  3405  000A6A                     l2661:
  3406  000A6A  0E00               	movlw	0
  3407  000A6C  6E1C               	movwf	___fladd@b^0,c
  3408  000A6E  0E00               	movlw	0
  3409  000A70  6E1D               	movwf	(___fladd@b+1)^0,c
  3410  000A72  0E00               	movlw	0
  3411  000A74  6E1E               	movwf	(___fladd@b+2)^0,c
  3412  000A76  0E00               	movlw	0
  3413  000A78  6E1F               	movwf	(___fladd@b+3)^0,c
  3414  000A7A  502A               	movf	___fladd@bexp^0,w,c
  3415  000A7C  A4D8               	btfss	status,2,c
  3416  000A7E  EF43  F005         	goto	u2701
  3417  000A82  EF45  F005         	goto	u2700
  3418  000A86                     u2701:
  3419  000A86  EF47  F005         	goto	l2665
  3420  000A8A                     u2700:
  3421  000A8A  0E00               	movlw	0
  3422  000A8C  6E28               	movwf	___fladd@signs^0,c
  3423  000A8E                     l2665:
  3424  000A8E  A02A               	btfss	___fladd@bexp^0,0,c
  3425  000A90  EF4C  F005         	goto	u2711
  3426  000A94  EF4E  F005         	goto	u2710
  3427  000A98                     u2711:
  3428  000A98  EF51  F005         	goto	l2669
  3429  000A9C                     u2710:
  3430  000A9C  8E1E               	bsf	(___fladd@b+2)^0,7,c
  3431  000A9E  EF52  F005         	goto	l2671
  3432  000AA2                     l2669:
  3433  000AA2  9E1E               	bcf	(___fladd@b+2)^0,7,c
  3434  000AA4                     l2671:
  3435  000AA4  90D8               	bcf	status,0,c
  3436  000AA6  302A               	rrcf	___fladd@bexp^0,w,c
  3437  000AA8  6E1F               	movwf	(___fladd@b+3)^0,c
  3438  000AAA  AE28               	btfss	___fladd@signs^0,7,c
  3439  000AAC  EF5A  F005         	goto	u2721
  3440  000AB0  EF5C  F005         	goto	u2720
  3441  000AB4                     u2721:
  3442  000AB4  EF5D  F005         	goto	l2677
  3443  000AB8                     u2720:
  3444  000AB8  8E1F               	bsf	(___fladd@b+3)^0,7,c
  3445  000ABA                     l2677:
  3446  000ABA  C01C  F01C         	movff	___fladd@b,?___fladd
  3447  000ABE  C01D  F01D         	movff	___fladd@b+1,?___fladd+1
  3448  000AC2  C01E  F01E         	movff	___fladd@b+2,?___fladd+2
  3449  000AC6  C01F  F01F         	movff	___fladd@b+3,?___fladd+3
  3450  000ACA                     l657:
  3451  000ACA  0012               	return		;funcret
  3452  000ACC                     __end_of___fladd:
  3453                           	opt callstack 0
  3454                           
  3455 ;; *************** function _ISR *****************
  3456 ;; Defined at:
  3457 ;;		line 168 in file "newmain.c"
  3458 ;; Parameters:    Size  Location     Type
  3459 ;;		None
  3460 ;; Auto vars:     Size  Location     Type
  3461 ;;		None
  3462 ;; Return value:  Size  Location     Type
  3463 ;;                  1    wreg      void 
  3464 ;; Registers used:
  3465 ;;		wreg, status,2, status,0, tblptrl, tblptrh, tblptru, cstack
  3466 ;; Tracked objects:
  3467 ;;		On entry : 0/0
  3468 ;;		On exit  : 0/0
  3469 ;;		Unchanged: 0/0
  3470 ;; Data sizes:     COMRAM   BANK0   BANK1   BANK2   BANK3   BANK4   BANK5
  3471 ;;      Params:         0       0       0       0       0       0       0
  3472 ;;      Locals:         0       0       0       0       0       0       0
  3473 ;;      Temps:          6       0       0       0       0       0       0
  3474 ;;      Totals:         6       0       0       0       0       0       0
  3475 ;;Total ram usage:        6 bytes
  3476 ;; Hardware stack levels used:    1
  3477 ;; Hardware stack levels required when called:    2
  3478 ;; This function calls:
  3479 ;;		i2_count_digit
  3480 ;;		i2_display
  3481 ;; This function is called by:
  3482 ;;		Interrupt level 2
  3483 ;; This function uses a non-reentrant model
  3484 ;;
  3485                           
  3486                           	psect	intcode
  3487  000008                     __pintcode:
  3488                           	opt callstack 0
  3489  000008                     _ISR:
  3490                           	opt callstack 26
  3491                           
  3492                           ;incstack = 0
  3493  000008  826D               	bsf	int$flags,1,c	;set compiler interrupt flag (level 2)
  3494  00000A  EDE7  F00D         	call	int_func,f	;refresh shadow registers
  3495                           
  3496                           	psect	intcode_body
  3497  001BCE                     __pintcode_body:
  3498                           	opt callstack 26
  3499  001BCE                     int_func:
  3500                           	opt callstack 26
  3501  001BCE  0006               	pop		; remove dummy address from shadow register refresh
  3502  001BD0  CFF6 F00A          	movff	tblptrl,??_ISR+2
  3503  001BD4  CFF7 F00B          	movff	tblptrh,??_ISR+3
  3504  001BD8  CFF8 F00C          	movff	tblptru,??_ISR+4
  3505  001BDC  CFF5 F00D          	movff	tablat,??_ISR+5
  3506  001BE0                     
  3507                           ;newmain.c: 170:     if(INTCONbits.INT0IF == 1) {
  3508  001BE0  A2F2               	btfss	242,1,c	;volatile
  3509  001BE2  EFF5  F00D         	goto	i2u233_41
  3510  001BE6  EFF7  F00D         	goto	i2u233_40
  3511  001BEA                     i2u233_41:
  3512  001BEA  EF10  F00E         	goto	i2l101
  3513  001BEE                     i2u233_40:
  3514  001BEE                     
  3515                           ;newmain.c: 171:       LATAbits.LA4 = 1;
  3516  001BEE  8889               	bsf	137,4,c	;volatile
  3517  001BF0                     
  3518                           ;newmain.c: 172:       _delay((unsigned long)((100)*(8000000/4000.0)));
  3519  001BF0  0E02               	movlw	2
  3520  001BF2  6E09               	movwf	(??_ISR+1)^0,c
  3521  001BF4  0E04               	movlw	4
  3522  001BF6  6E08               	movwf	??_ISR^0,c
  3523  001BF8  0EBA               	movlw	186
  3524  001BFA                     i2u338_47:
  3525  001BFA  2EE8               	decfsz	wreg,f,c
  3526  001BFC  D7FE               	bra	i2u338_47
  3527  001BFE  2E08               	decfsz	??_ISR^0,f,c
  3528  001C00  D7FC               	bra	i2u338_47
  3529  001C02  2E09               	decfsz	(??_ISR+1)^0,f,c
  3530  001C04  D7FA               	bra	i2u338_47
  3531  001C06  D000               	nop2	
  3532  001C08                     
  3533                           ;newmain.c: 173:       LATAbits.LA4 = 0;
  3534  001C08  9889               	bcf	137,4,c	;volatile
  3535  001C0A                     
  3536                           ;newmain.c: 174:       count = count + 1;
  3537  001C0A  0E01               	movlw	1
  3538  001C0C  2465               	addwf	_count^0,w,c
  3539  001C0E  6E65               	movwf	_count^0,c
  3540  001C10  0E00               	movlw	0
  3541  001C12  2066               	addwfc	(_count+1)^0,w,c
  3542  001C14  6E66               	movwf	(_count+1)^0,c
  3543  001C16                     
  3544                           ;newmain.c: 175:       count_digit();
  3545  001C16  EC2A  F00C         	call	i2_count_digit	;wreg free
  3546  001C1A                     
  3547                           ;newmain.c: 176:       display();
  3548  001C1A  EC0D  F00D         	call	i2_display	;wreg free
  3549  001C1E                     
  3550                           ;newmain.c: 177:       INTCONbits.INT0IF = 0;
  3551  001C1E  92F2               	bcf	242,1,c	;volatile
  3552  001C20                     i2l101:
  3553  001C20  C00D  FFF5         	movff	??_ISR+5,tablat
  3554  001C24  C00C  FFF8         	movff	??_ISR+4,tblptru
  3555  001C28  C00B  FFF7         	movff	??_ISR+3,tblptrh
  3556  001C2C  C00A  FFF6         	movff	??_ISR+2,tblptrl
  3557  001C30  926D               	bcf	int$flags,1,c	;clear compiler interrupt flag (level 2)
  3558  001C32  0011               	retfie		f
  3559  001C34                     __end_of_ISR:
  3560                           	opt callstack 0
  3561                           
  3562 ;; *************** function i2_display *****************
  3563 ;; Defined at:
  3564 ;;		line 200 in file "newmain.c"
  3565 ;; Parameters:    Size  Location     Type
  3566 ;;		None
  3567 ;; Auto vars:     Size  Location     Type
  3568 ;;		None
  3569 ;; Return value:  Size  Location     Type
  3570 ;;                  1    wreg      void 
  3571 ;; Registers used:
  3572 ;;		wreg, status,2, status,0, tblptrl, tblptrh, tblptru
  3573 ;; Tracked objects:
  3574 ;;		On entry : 0/0
  3575 ;;		On exit  : 0/0
  3576 ;;		Unchanged: 0/0
  3577 ;; Data sizes:     COMRAM   BANK0   BANK1   BANK2   BANK3   BANK4   BANK5
  3578 ;;      Params:         0       0       0       0       0       0       0
  3579 ;;      Locals:         0       0       0       0       0       0       0
  3580 ;;      Temps:          1       0       0       0       0       0       0
  3581 ;;      Totals:         1       0       0       0       0       0       0
  3582 ;;Total ram usage:        1 bytes
  3583 ;; Hardware stack levels used:    1
  3584 ;; This function calls:
  3585 ;;		Nothing
  3586 ;; This function is called by:
  3587 ;;		_ISR
  3588 ;; This function uses a non-reentrant model
  3589 ;;
  3590                           
  3591                           	psect	text13
  3592  001A1A                     __ptext13:
  3593                           	opt callstack 0
  3594  001A1A                     i2_display:
  3595                           	opt callstack 27
  3596  001A1A                     
  3597                           ;newmain.c: 202:     for(i=0;i<10;i++)
  3598  001A1A  0E00               	movlw	0
  3599  001A1C  6E6C               	movwf	(_i+1)^0,c
  3600  001A1E  0E00               	movlw	0
  3601  001A20  6E6B               	movwf	_i^0,c
  3602  001A22                     i2l1543:
  3603  001A22  506C               	movf	(_i+1)^0,w,c
  3604  001A24  E109               	bnz	i2u114_40
  3605  001A26  0E0A               	movlw	10
  3606  001A28  5C6B               	subwf	_i^0,w,c
  3607  001A2A  A0D8               	btfss	status,0,c
  3608  001A2C  EF1A  F00D         	goto	i2u114_41
  3609  001A30  EF1C  F00D         	goto	i2u114_40
  3610  001A34                     i2u114_41:
  3611  001A34  EF1E  F00D         	goto	i2l107
  3612  001A38                     i2u114_40:
  3613  001A38  EF72  F00D         	goto	i2l109
  3614  001A3C                     i2l107:
  3615                           
  3616                           ;newmain.c: 203:   {;newmain.c: 206:                        LATAbits.LA1=1;LATAbits.LA0=
      +                          0;LATAbits.LA2=0;LATAbits.LA3=0;
  3617  001A3C  8289               	bsf	137,1,c	;volatile
  3618  001A3E  9089               	bcf	137,0,c	;volatile
  3619  001A40  9489               	bcf	137,2,c	;volatile
  3620  001A42  9689               	bcf	137,3,c	;volatile
  3621  001A44                     
  3622                           ;newmain.c: 207:                         LATD=value[num1];
  3623  001A44  0E01               	movlw	low _value
  3624  001A46  2461               	addwf	_num1^0,w,c
  3625  001A48  6EF6               	movwf	tblptrl,c
  3626  001A4A  0E06               	movlw	high _value
  3627  001A4C  2062               	addwfc	(_num1+1)^0,w,c
  3628  001A4E  6EF7               	movwf	tblptrh,c
  3629  001A50                     	if	0	;There are less than 3 active tblptr bytes
  3630  001A50                     	endif
  3631  001A50  0008               	tblrd		*
  3632  001A52  CFF5 FF8C          	movff	tablat,3980	;volatile
  3633  001A56                     
  3634                           ;newmain.c: 208:                         _delay((unsigned long)((5)*(8000000/4000.0)));
  3635  001A56  0E0D               	movlw	13
  3636  001A58  6E01               	movwf	??i2_display^0,c
  3637  001A5A  0EFC               	movlw	252
  3638  001A5C                     i2u339_47:
  3639  001A5C  2EE8               	decfsz	wreg,f,c
  3640  001A5E  D7FE               	bra	i2u339_47
  3641  001A60  2E01               	decfsz	??i2_display^0,f,c
  3642  001A62  D7FC               	bra	i2u339_47
  3643  001A64                     
  3644                           ;newmain.c: 210:                         LATAbits.LA1=0;LATAbits.LA0=1;LATAbits.LA2=0;LA
      +                          TAbits.LA3=0;
  3645  001A64  9289               	bcf	137,1,c	;volatile
  3646  001A66  8089               	bsf	137,0,c	;volatile
  3647  001A68  9489               	bcf	137,2,c	;volatile
  3648  001A6A  9689               	bcf	137,3,c	;volatile
  3649  001A6C                     
  3650                           ;newmain.c: 211:                         LATD=value[num2];
  3651  001A6C  0E01               	movlw	low _value
  3652  001A6E  245F               	addwf	_num2^0,w,c
  3653  001A70  6EF6               	movwf	tblptrl,c
  3654  001A72  0E06               	movlw	high _value
  3655  001A74  2060               	addwfc	(_num2+1)^0,w,c
  3656  001A76  6EF7               	movwf	tblptrh,c
  3657  001A78                     	if	0	;There are less than 3 active tblptr bytes
  3658  001A78                     	endif
  3659  001A78  0008               	tblrd		*
  3660  001A7A  CFF5 FF8C          	movff	tablat,3980	;volatile
  3661                           
  3662                           ;newmain.c: 212:                         _delay((unsigned long)((5)*(8000000/4000.0)));
  3663  001A7E  0E0D               	movlw	13
  3664  001A80  6E01               	movwf	??i2_display^0,c
  3665  001A82  0EFC               	movlw	252
  3666  001A84                     i2u340_47:
  3667  001A84  2EE8               	decfsz	wreg,f,c
  3668  001A86  D7FE               	bra	i2u340_47
  3669  001A88  2E01               	decfsz	??i2_display^0,f,c
  3670  001A8A  D7FC               	bra	i2u340_47
  3671  001A8C                     
  3672                           ;newmain.c: 214:                         LATAbits.LA1=0;LATAbits.LA0=0;LATAbits.LA2=0;LA
      +                          TAbits.LA3=1;
  3673  001A8C  9289               	bcf	137,1,c	;volatile
  3674  001A8E  9089               	bcf	137,0,c	;volatile
  3675  001A90  9489               	bcf	137,2,c	;volatile
  3676  001A92  8689               	bsf	137,3,c	;volatile
  3677  001A94                     
  3678                           ;newmain.c: 215:                         LATD=value[num3];
  3679  001A94  0E01               	movlw	low _value
  3680  001A96  245D               	addwf	_num3^0,w,c
  3681  001A98  6EF6               	movwf	tblptrl,c
  3682  001A9A  0E06               	movlw	high _value
  3683  001A9C  205E               	addwfc	(_num3+1)^0,w,c
  3684  001A9E  6EF7               	movwf	tblptrh,c
  3685  001AA0                     	if	0	;There are less than 3 active tblptr bytes
  3686  001AA0                     	endif
  3687  001AA0  0008               	tblrd		*
  3688  001AA2  CFF5 FF8C          	movff	tablat,3980	;volatile
  3689  001AA6                     
  3690                           ;newmain.c: 216:                         _delay((unsigned long)((5)*(8000000/4000.0)));
  3691  001AA6  0E0D               	movlw	13
  3692  001AA8  6E01               	movwf	??i2_display^0,c
  3693  001AAA  0EFC               	movlw	252
  3694  001AAC                     i2u341_47:
  3695  001AAC  2EE8               	decfsz	wreg,f,c
  3696  001AAE  D7FE               	bra	i2u341_47
  3697  001AB0  2E01               	decfsz	??i2_display^0,f,c
  3698  001AB2  D7FC               	bra	i2u341_47
  3699  001AB4                     
  3700                           ;newmain.c: 218:                         LATAbits.LA1=0;LATAbits.LA0=0;LATAbits.LA2=1;LA
      +                          TAbits.LA3=0;
  3701  001AB4  9289               	bcf	137,1,c	;volatile
  3702  001AB6  9089               	bcf	137,0,c	;volatile
  3703  001AB8  8489               	bsf	137,2,c	;volatile
  3704  001ABA  9689               	bcf	137,3,c	;volatile
  3705                           
  3706                           ;newmain.c: 219:                         LATD=value[num4];
  3707  001ABC  0E01               	movlw	low _value
  3708  001ABE  245B               	addwf	_num4^0,w,c
  3709  001AC0  6EF6               	movwf	tblptrl,c
  3710  001AC2  0E06               	movlw	high _value
  3711  001AC4  205C               	addwfc	(_num4+1)^0,w,c
  3712  001AC6  6EF7               	movwf	tblptrh,c
  3713  001AC8                     	if	0	;There are less than 3 active tblptr bytes
  3714  001AC8                     	endif
  3715  001AC8  0008               	tblrd		*
  3716  001ACA  CFF5 FF8C          	movff	tablat,3980	;volatile
  3717  001ACE                     
  3718                           ;newmain.c: 220:                         _delay((unsigned long)((5)*(8000000/4000.0)));
  3719  001ACE  0E0D               	movlw	13
  3720  001AD0  6E01               	movwf	??i2_display^0,c
  3721  001AD2  0EFC               	movlw	252
  3722  001AD4                     i2u342_47:
  3723  001AD4  2EE8               	decfsz	wreg,f,c
  3724  001AD6  D7FE               	bra	i2u342_47
  3725  001AD8  2E01               	decfsz	??i2_display^0,f,c
  3726  001ADA  D7FC               	bra	i2u342_47
  3727  001ADC                     
  3728                           ;newmain.c: 221:   }
  3729  001ADC  4A6B               	infsnz	_i^0,f,c
  3730  001ADE  2A6C               	incf	(_i+1)^0,f,c
  3731  001AE0  EF11  F00D         	goto	i2l1543
  3732  001AE4                     i2l109:
  3733  001AE4  0012               	return		;funcret
  3734  001AE6                     __end_ofi2_display:
  3735                           	opt callstack 0
  3736                           
  3737 ;; *************** function i2_count_digit *****************
  3738 ;; Defined at:
  3739 ;;		line 182 in file "newmain.c"
  3740 ;; Parameters:    Size  Location     Type
  3741 ;;		None
  3742 ;; Auto vars:     Size  Location     Type
  3743 ;;		None
  3744 ;; Return value:  Size  Location     Type
  3745 ;;                  1    wreg      void 
  3746 ;; Registers used:
  3747 ;;		wreg, status,2, status,0, cstack
  3748 ;; Tracked objects:
  3749 ;;		On entry : 0/0
  3750 ;;		On exit  : 0/0
  3751 ;;		Unchanged: 0/0
  3752 ;; Data sizes:     COMRAM   BANK0   BANK1   BANK2   BANK3   BANK4   BANK5
  3753 ;;      Params:         0       0       0       0       0       0       0
  3754 ;;      Locals:         0       0       0       0       0       0       0
  3755 ;;      Temps:          0       0       0       0       0       0       0
  3756 ;;      Totals:         0       0       0       0       0       0       0
  3757 ;;Total ram usage:        0 bytes
  3758 ;; Hardware stack levels used:    1
  3759 ;; Hardware stack levels required when called:    1
  3760 ;; This function calls:
  3761 ;;		i2___lwdiv
  3762 ;;		i2___lwmod
  3763 ;; This function is called by:
  3764 ;;		_ISR
  3765 ;; This function uses a non-reentrant model
  3766 ;;
  3767                           
  3768                           	psect	text14
  3769  001854                     __ptext14:
  3770                           	opt callstack 0
  3771  001854                     i2_count_digit:
  3772                           	opt callstack 26
  3773  001854                     
  3774                           ;newmain.c: 183:         num0= count;
  3775  001854  C065  F063         	movff	_count,_num0
  3776  001858  C066  F064         	movff	_count+1,_num0+1
  3777  00185C                     
  3778                           ;newmain.c: 184:         num1=num0%10;
  3779  00185C  C063  F001         	movff	_num0,i2___lwmod@dividend
  3780  001860  C064  F002         	movff	_num0+1,i2___lwmod@dividend+1
  3781  001864  0E00               	movlw	0
  3782  001866  6E04               	movwf	(i2___lwmod@divisor+1)^0,c
  3783  001868  0E0A               	movlw	10
  3784  00186A  6E03               	movwf	i2___lwmod@divisor^0,c
  3785  00186C  EC4C  F00E         	call	i2___lwmod	;wreg free
  3786  001870  C001  F061         	movff	?i2___lwmod,_num1
  3787  001874  C002  F062         	movff	?i2___lwmod+1,_num1+1
  3788  001878                     
  3789                           ;newmain.c: 185:   num0=num0-num1;
  3790  001878  5061               	movf	_num1^0,w,c
  3791  00187A  5C63               	subwf	_num0^0,w,c
  3792  00187C  6E63               	movwf	_num0^0,c
  3793  00187E  5062               	movf	(_num1+1)^0,w,c
  3794  001880  5864               	subwfb	(_num0+1)^0,w,c
  3795  001882  6E64               	movwf	(_num0+1)^0,c
  3796  001884                     
  3797                           ;newmain.c: 186:   num0=num0/10;
  3798  001884  C063  F001         	movff	_num0,i2___lwdiv@dividend
  3799  001888  C064  F002         	movff	_num0+1,i2___lwdiv@dividend+1
  3800  00188C  0E00               	movlw	0
  3801  00188E  6E04               	movwf	(i2___lwdiv@divisor+1)^0,c
  3802  001890  0E0A               	movlw	10
  3803  001892  6E03               	movwf	i2___lwdiv@divisor^0,c
  3804  001894  ECAD  F00D         	call	i2___lwdiv	;wreg free
  3805  001898  C001  F063         	movff	?i2___lwdiv,_num0
  3806  00189C  C002  F064         	movff	?i2___lwdiv+1,_num0+1
  3807  0018A0                     
  3808                           ;newmain.c: 188:   num2=num0%10;
  3809  0018A0  C063  F001         	movff	_num0,i2___lwmod@dividend
  3810  0018A4  C064  F002         	movff	_num0+1,i2___lwmod@dividend+1
  3811  0018A8  0E00               	movlw	0
  3812  0018AA  6E04               	movwf	(i2___lwmod@divisor+1)^0,c
  3813  0018AC  0E0A               	movlw	10
  3814  0018AE  6E03               	movwf	i2___lwmod@divisor^0,c
  3815  0018B0  EC4C  F00E         	call	i2___lwmod	;wreg free
  3816  0018B4  C001  F05F         	movff	?i2___lwmod,_num2
  3817  0018B8  C002  F060         	movff	?i2___lwmod+1,_num2+1
  3818  0018BC                     
  3819                           ;newmain.c: 190:         num0 = time;
  3820  0018BC  C059  F063         	movff	_time,_num0
  3821  0018C0  C05A  F064         	movff	_time+1,_num0+1
  3822  0018C4                     
  3823                           ;newmain.c: 191:   num3=num0%10;
  3824  0018C4  C063  F001         	movff	_num0,i2___lwmod@dividend
  3825  0018C8  C064  F002         	movff	_num0+1,i2___lwmod@dividend+1
  3826  0018CC  0E00               	movlw	0
  3827  0018CE  6E04               	movwf	(i2___lwmod@divisor+1)^0,c
  3828  0018D0  0E0A               	movlw	10
  3829  0018D2  6E03               	movwf	i2___lwmod@divisor^0,c
  3830  0018D4  EC4C  F00E         	call	i2___lwmod	;wreg free
  3831  0018D8  C001  F05D         	movff	?i2___lwmod,_num3
  3832  0018DC  C002  F05E         	movff	?i2___lwmod+1,_num3+1
  3833                           
  3834                           ;newmain.c: 192:   num0=num0-num3;
  3835  0018E0  505D               	movf	_num3^0,w,c
  3836  0018E2  5C63               	subwf	_num0^0,w,c
  3837  0018E4  6E63               	movwf	_num0^0,c
  3838  0018E6  505E               	movf	(_num3+1)^0,w,c
  3839  0018E8  5864               	subwfb	(_num0+1)^0,w,c
  3840  0018EA  6E64               	movwf	(_num0+1)^0,c
  3841  0018EC                     
  3842                           ;newmain.c: 193:   num0=num0/10;
  3843  0018EC  C063  F001         	movff	_num0,i2___lwdiv@dividend
  3844  0018F0  C064  F002         	movff	_num0+1,i2___lwdiv@dividend+1
  3845  0018F4  0E00               	movlw	0
  3846  0018F6  6E04               	movwf	(i2___lwdiv@divisor+1)^0,c
  3847  0018F8  0E0A               	movlw	10
  3848  0018FA  6E03               	movwf	i2___lwdiv@divisor^0,c
  3849  0018FC  ECAD  F00D         	call	i2___lwdiv	;wreg free
  3850  001900  C001  F063         	movff	?i2___lwdiv,_num0
  3851  001904  C002  F064         	movff	?i2___lwdiv+1,_num0+1
  3852  001908                     
  3853                           ;newmain.c: 195:   num4=num0%10;
  3854  001908  C063  F001         	movff	_num0,i2___lwmod@dividend
  3855  00190C  C064  F002         	movff	_num0+1,i2___lwmod@dividend+1
  3856  001910  0E00               	movlw	0
  3857  001912  6E04               	movwf	(i2___lwmod@divisor+1)^0,c
  3858  001914  0E0A               	movlw	10
  3859  001916  6E03               	movwf	i2___lwmod@divisor^0,c
  3860  001918  EC4C  F00E         	call	i2___lwmod	;wreg free
  3861  00191C  C001  F05B         	movff	?i2___lwmod,_num4
  3862  001920  C002  F05C         	movff	?i2___lwmod+1,_num4+1
  3863                           
  3864                           ;newmain.c: 196:   num0=num0-num4;
  3865  001924  505B               	movf	_num4^0,w,c
  3866  001926  5C63               	subwf	_num0^0,w,c
  3867  001928  6E63               	movwf	_num0^0,c
  3868  00192A  505C               	movf	(_num4+1)^0,w,c
  3869  00192C  5864               	subwfb	(_num0+1)^0,w,c
  3870  00192E  6E64               	movwf	(_num0+1)^0,c
  3871  001930                     
  3872                           ;newmain.c: 197:   num0=num0/10;
  3873  001930  C063  F001         	movff	_num0,i2___lwdiv@dividend
  3874  001934  C064  F002         	movff	_num0+1,i2___lwdiv@dividend+1
  3875  001938  0E00               	movlw	0
  3876  00193A  6E04               	movwf	(i2___lwdiv@divisor+1)^0,c
  3877  00193C  0E0A               	movlw	10
  3878  00193E  6E03               	movwf	i2___lwdiv@divisor^0,c
  3879  001940  ECAD  F00D         	call	i2___lwdiv	;wreg free
  3880  001944  C001  F063         	movff	?i2___lwdiv,_num0
  3881  001948  C002  F064         	movff	?i2___lwdiv+1,_num0+1
  3882  00194C  0012               	return		;funcret
  3883  00194E                     __end_ofi2_count_digit:
  3884                           	opt callstack 0
  3885                           
  3886 ;; *************** function i2___lwmod *****************
  3887 ;; Defined at:
  3888 ;;		line 7 in file "C:\Program Files (x86)\Microchip\xc8\v2.10\pic\sources\c99\common\lwmod.c"
  3889 ;; Parameters:    Size  Location     Type
  3890 ;;  dividend        2    0[COMRAM] unsigned int 
  3891 ;;  divisor         2    2[COMRAM] unsigned int 
  3892 ;; Auto vars:     Size  Location     Type
  3893 ;;  __lwmod         1    4[COMRAM] unsigned char 
  3894 ;; Return value:  Size  Location     Type
  3895 ;;                  2    0[COMRAM] unsigned int 
  3896 ;; Registers used:
  3897 ;;		wreg, status,2, status,0
  3898 ;; Tracked objects:
  3899 ;;		On entry : 0/0
  3900 ;;		On exit  : 0/0
  3901 ;;		Unchanged: 0/0
  3902 ;; Data sizes:     COMRAM   BANK0   BANK1   BANK2   BANK3   BANK4   BANK5
  3903 ;;      Params:         4       0       0       0       0       0       0
  3904 ;;      Locals:         1       0       0       0       0       0       0
  3905 ;;      Temps:          0       0       0       0       0       0       0
  3906 ;;      Totals:         5       0       0       0       0       0       0
  3907 ;;Total ram usage:        5 bytes
  3908 ;; Hardware stack levels used:    1
  3909 ;; This function calls:
  3910 ;;		Nothing
  3911 ;; This function is called by:
  3912 ;;		i2_count_digit
  3913 ;; This function uses a non-reentrant model
  3914 ;;
  3915                           
  3916                           	psect	text15
  3917  001C98                     __ptext15:
  3918                           	opt callstack 0
  3919  001C98                     i2___lwmod:
  3920                           	opt callstack 26
  3921  001C98  5003               	movf	i2___lwmod@divisor^0,w,c
  3922  001C9A  1004               	iorwf	(i2___lwmod@divisor+1)^0,w,c
  3923  001C9C  B4D8               	btfsc	status,2,c
  3924  001C9E  EF53  F00E         	goto	i2u226_41
  3925  001CA2  EF55  F00E         	goto	i2u226_40
  3926  001CA6                     i2u226_41:
  3927  001CA6  EF79  F00E         	goto	i2l621
  3928  001CAA                     i2u226_40:
  3929  001CAA  0E01               	movlw	1
  3930  001CAC  6E05               	movwf	i2___lwmod@counter^0,c
  3931  001CAE  EF5D  F00E         	goto	i2l2315
  3932  001CB2                     i2l2313:
  3933  001CB2  90D8               	bcf	status,0,c
  3934  001CB4  3603               	rlcf	i2___lwmod@divisor^0,f,c
  3935  001CB6  3604               	rlcf	(i2___lwmod@divisor+1)^0,f,c
  3936  001CB8  2A05               	incf	i2___lwmod@counter^0,f,c
  3937  001CBA                     i2l2315:
  3938  001CBA  AE04               	btfss	(i2___lwmod@divisor+1)^0,7,c
  3939  001CBC  EF62  F00E         	goto	i2u227_41
  3940  001CC0  EF64  F00E         	goto	i2u227_40
  3941  001CC4                     i2u227_41:
  3942  001CC4  EF59  F00E         	goto	i2l2313
  3943  001CC8                     i2u227_40:
  3944  001CC8                     i2l2317:
  3945  001CC8  5003               	movf	i2___lwmod@divisor^0,w,c
  3946  001CCA  5C01               	subwf	i2___lwmod@dividend^0,w,c
  3947  001CCC  5004               	movf	(i2___lwmod@divisor+1)^0,w,c
  3948  001CCE  5802               	subwfb	(i2___lwmod@dividend+1)^0,w,c
  3949  001CD0  A0D8               	btfss	status,0,c
  3950  001CD2  EF6D  F00E         	goto	i2u228_41
  3951  001CD6  EF6F  F00E         	goto	i2u228_40
  3952  001CDA                     i2u228_41:
  3953  001CDA  EF73  F00E         	goto	i2l2321
  3954  001CDE                     i2u228_40:
  3955  001CDE  5003               	movf	i2___lwmod@divisor^0,w,c
  3956  001CE0  5E01               	subwf	i2___lwmod@dividend^0,f,c
  3957  001CE2  5004               	movf	(i2___lwmod@divisor+1)^0,w,c
  3958  001CE4  5A02               	subwfb	(i2___lwmod@dividend+1)^0,f,c
  3959  001CE6                     i2l2321:
  3960  001CE6  90D8               	bcf	status,0,c
  3961  001CE8  3204               	rrcf	(i2___lwmod@divisor+1)^0,f,c
  3962  001CEA  3203               	rrcf	i2___lwmod@divisor^0,f,c
  3963  001CEC  2E05               	decfsz	i2___lwmod@counter^0,f,c
  3964  001CEE  EF64  F00E         	goto	i2l2317
  3965  001CF2                     i2l621:
  3966  001CF2  C001  F001         	movff	i2___lwmod@dividend,?i2___lwmod
  3967  001CF6  C002  F002         	movff	i2___lwmod@dividend+1,?i2___lwmod+1
  3968  001CFA  0012               	return		;funcret
  3969  001CFC                     __end_ofi2___lwmod:
  3970                           	opt callstack 0
  3971                           
  3972 ;; *************** function i2___lwdiv *****************
  3973 ;; Defined at:
  3974 ;;		line 7 in file "C:\Program Files (x86)\Microchip\xc8\v2.10\pic\sources\c99\common\lwdiv.c"
  3975 ;; Parameters:    Size  Location     Type
  3976 ;;  dividend        2    0[COMRAM] unsigned int 
  3977 ;;  divisor         2    2[COMRAM] unsigned int 
  3978 ;; Auto vars:     Size  Location     Type
  3979 ;;  __lwdiv         2    4[COMRAM] unsigned int 
  3980 ;;  __lwdiv         1    6[COMRAM] unsigned char 
  3981 ;; Return value:  Size  Location     Type
  3982 ;;                  2    0[COMRAM] unsigned int 
  3983 ;; Registers used:
  3984 ;;		wreg, status,2, status,0
  3985 ;; Tracked objects:
  3986 ;;		On entry : 0/0
  3987 ;;		On exit  : 0/0
  3988 ;;		Unchanged: 0/0
  3989 ;; Data sizes:     COMRAM   BANK0   BANK1   BANK2   BANK3   BANK4   BANK5
  3990 ;;      Params:         4       0       0       0       0       0       0
  3991 ;;      Locals:         3       0       0       0       0       0       0
  3992 ;;      Temps:          0       0       0       0       0       0       0
  3993 ;;      Totals:         7       0       0       0       0       0       0
  3994 ;;Total ram usage:        7 bytes
  3995 ;; Hardware stack levels used:    1
  3996 ;; This function calls:
  3997 ;;		Nothing
  3998 ;; This function is called by:
  3999 ;;		i2_count_digit
  4000 ;; This function uses a non-reentrant model
  4001 ;;
  4002                           
  4003                           	psect	text16
  4004  001B5A                     __ptext16:
  4005                           	opt callstack 0
  4006  001B5A                     i2___lwdiv:
  4007                           	opt callstack 26
  4008  001B5A  0E00               	movlw	0
  4009  001B5C  6E06               	movwf	(i2___lwdiv@quotient+1)^0,c
  4010  001B5E  0E00               	movlw	0
  4011  001B60  6E05               	movwf	i2___lwdiv@quotient^0,c
  4012  001B62  5003               	movf	i2___lwdiv@divisor^0,w,c
  4013  001B64  1004               	iorwf	(i2___lwdiv@divisor+1)^0,w,c
  4014  001B66  B4D8               	btfsc	status,2,c
  4015  001B68  EFB8  F00D         	goto	i2u223_41
  4016  001B6C  EFBA  F00D         	goto	i2u223_40
  4017  001B70                     i2u223_41:
  4018  001B70  EFE2  F00D         	goto	i2l611
  4019  001B74                     i2u223_40:
  4020  001B74  0E01               	movlw	1
  4021  001B76  6E07               	movwf	i2___lwdiv@counter^0,c
  4022  001B78  EFC2  F00D         	goto	i2l2295
  4023  001B7C                     i2l2293:
  4024  001B7C  90D8               	bcf	status,0,c
  4025  001B7E  3603               	rlcf	i2___lwdiv@divisor^0,f,c
  4026  001B80  3604               	rlcf	(i2___lwdiv@divisor+1)^0,f,c
  4027  001B82  2A07               	incf	i2___lwdiv@counter^0,f,c
  4028  001B84                     i2l2295:
  4029  001B84  AE04               	btfss	(i2___lwdiv@divisor+1)^0,7,c
  4030  001B86  EFC7  F00D         	goto	i2u224_41
  4031  001B8A  EFC9  F00D         	goto	i2u224_40
  4032  001B8E                     i2u224_41:
  4033  001B8E  EFBE  F00D         	goto	i2l2293
  4034  001B92                     i2u224_40:
  4035  001B92                     i2l2297:
  4036  001B92  90D8               	bcf	status,0,c
  4037  001B94  3605               	rlcf	i2___lwdiv@quotient^0,f,c
  4038  001B96  3606               	rlcf	(i2___lwdiv@quotient+1)^0,f,c
  4039  001B98  5003               	movf	i2___lwdiv@divisor^0,w,c
  4040  001B9A  5C01               	subwf	i2___lwdiv@dividend^0,w,c
  4041  001B9C  5004               	movf	(i2___lwdiv@divisor+1)^0,w,c
  4042  001B9E  5802               	subwfb	(i2___lwdiv@dividend+1)^0,w,c
  4043  001BA0  A0D8               	btfss	status,0,c
  4044  001BA2  EFD5  F00D         	goto	i2u225_41
  4045  001BA6  EFD7  F00D         	goto	i2u225_40
  4046  001BAA                     i2u225_41:
  4047  001BAA  EFDC  F00D         	goto	i2l2305
  4048  001BAE                     i2u225_40:
  4049  001BAE  5003               	movf	i2___lwdiv@divisor^0,w,c
  4050  001BB0  5E01               	subwf	i2___lwdiv@dividend^0,f,c
  4051  001BB2  5004               	movf	(i2___lwdiv@divisor+1)^0,w,c
  4052  001BB4  5A02               	subwfb	(i2___lwdiv@dividend+1)^0,f,c
  4053  001BB6  8005               	bsf	i2___lwdiv@quotient^0,0,c
  4054  001BB8                     i2l2305:
  4055  001BB8  90D8               	bcf	status,0,c
  4056  001BBA  3204               	rrcf	(i2___lwdiv@divisor+1)^0,f,c
  4057  001BBC  3203               	rrcf	i2___lwdiv@divisor^0,f,c
  4058  001BBE  2E07               	decfsz	i2___lwdiv@counter^0,f,c
  4059  001BC0  EFC9  F00D         	goto	i2l2297
  4060  001BC4                     i2l611:
  4061  001BC4  C005  F001         	movff	i2___lwdiv@quotient,?i2___lwdiv
  4062  001BC8  C006  F002         	movff	i2___lwdiv@quotient+1,?i2___lwdiv+1
  4063  001BCC  0012               	return		;funcret
  4064  001BCE                     __end_ofi2___lwdiv:
  4065                           	opt callstack 0
  4066                           
  4067                           	psect	rparam
  4068  0000                     
  4069                           	psect	temp
  4070  00006D                     btemp:
  4071                           	opt callstack 0
  4072  00006D                     	ds	1
  4073  0000                     int$flags	set	btemp
  4074  0000                     wtemp8	set	btemp+1
  4075  0000                     ttemp5	set	btemp+1
  4076  0000                     ttemp6	set	btemp+4
  4077  0000                     ttemp7	set	btemp+8
  4078                           tosu	equ	0xFFF
  4079                           tosh	equ	0xFFE
  4080                           tosl	equ	0xFFD
  4081                           stkptr	equ	0xFFC
  4082                           pclatu	equ	0xFFB
  4083                           pclath	equ	0xFFA
  4084                           pcl	equ	0xFF9
  4085                           tblptru	equ	0xFF8
  4086                           tblptrh	equ	0xFF7
  4087                           tblptrl	equ	0xFF6
  4088                           tablat	equ	0xFF5
  4089                           prodh	equ	0xFF4
  4090                           prodl	equ	0xFF3
  4091                           indf0	equ	0xFEF
  4092                           postinc0	equ	0xFEE
  4093                           postdec0	equ	0xFED
  4094                           preinc0	equ	0xFEC
  4095                           plusw0	equ	0xFEB
  4096                           fsr0h	equ	0xFEA
  4097                           fsr0l	equ	0xFE9
  4098                           wreg	equ	0xFE8
  4099                           indf1	equ	0xFE7
  4100                           postinc1	equ	0xFE6
  4101                           postdec1	equ	0xFE5
  4102                           preinc1	equ	0xFE4
  4103                           plusw1	equ	0xFE3
  4104                           fsr1h	equ	0xFE2
  4105                           fsr1l	equ	0xFE1
  4106                           bsr	equ	0xFE0
  4107                           indf2	equ	0xFDF
  4108                           postinc2	equ	0xFDE
  4109                           postdec2	equ	0xFDD
  4110                           preinc2	equ	0xFDC
  4111                           plusw2	equ	0xFDB
  4112                           fsr2h	equ	0xFDA
  4113                           fsr2l	equ	0xFD9
  4114                           status	equ	0xFD8


Data Sizes:
    Strings     0
    Constant    10
    Data        0
    BSS         22
    Persistent  0
    Stack       0

Auto Spaces:
    Space          Size  Autos    Used
    COMRAM          126     89     111
    BANK0           128      6       6
    BANK1           256      0       0
    BANK2           256      0       0
    BANK3           256      0       0
    BANK4           256      0       0
    BANK5           244      0       0

Pointer List with Targets:

    None.

Critical Paths under _main in COMRAM

    _main->_SetDutyCycleTo
    _count_digit->___lwdiv
    _SetDutyCycleTo->___fltol
    ___fltol->___flmul
    ___flmul->___fladd
    ___fladd->___xxtofl

Critical Paths under _ISR in COMRAM

    i2_count_digit->i2___lwdiv

Critical Paths under _main in BANK0

    _main->_SetDutyCycleTo

Critical Paths under _ISR in BANK0

    None.

Critical Paths under _main in BANK1

    None.

Critical Paths under _ISR in BANK1

    None.

Critical Paths under _main in BANK2

    None.

Critical Paths under _ISR in BANK2

    None.

Critical Paths under _main in BANK3

    None.

Critical Paths under _ISR in BANK3

    None.

Critical Paths under _main in BANK4

    None.

Critical Paths under _ISR in BANK4

    None.

Critical Paths under _main in BANK5

    None.

Critical Paths under _ISR in BANK5

    None.

Call Graph Tables:

 ---------------------------------------------------------------------------------
 (Depth) Function   	        Calls       Base Space   Used Autos Params    Refs
 ---------------------------------------------------------------------------------
 (0) _main                                                 3     3      0   11340
                                             86 COMRAM     3     3      0
                     _SetDutyCycleTo
                        _count_digit
                              _delay
                            _display
 ---------------------------------------------------------------------------------
 (1) _display                                              1     1      0       0
                                             13 COMRAM     1     1      0
 ---------------------------------------------------------------------------------
 (1) _delay                                                6     4      2     244
                                             13 COMRAM     6     4      2
 ---------------------------------------------------------------------------------
 (1) _count_digit                                          0     0      0    1385
                            ___lwdiv
                            ___lwmod
 ---------------------------------------------------------------------------------
 (2) ___lwmod                                              5     1      4     767
                                             13 COMRAM     5     1      4
 ---------------------------------------------------------------------------------
 (2) ___lwdiv                                              7     3      4     618
                                             13 COMRAM     7     3      4
 ---------------------------------------------------------------------------------
 (1) _SetDutyCycleTo                                      14     8      6    9612
                                             78 COMRAM     8     2      6
                                              0 BANK0      6     6      0
                            ___fladd
                            ___fldiv
                            ___flmul
                            ___fltol
                           ___xxtofl
 ---------------------------------------------------------------------------------
 (2) ___xxtofl                                            14    10      4     566
                                             13 COMRAM    14    10      4
 ---------------------------------------------------------------------------------
 (2) ___fltol                                             10     6      4     427
                                             68 COMRAM    10     6      4
                            ___fladd (ARG)
                            ___fldiv (ARG)
                            ___flmul (ARG)
                           ___xxtofl (ARG)
 ---------------------------------------------------------------------------------
 (2) ___flmul                                             25    17      8    2693
                                             43 COMRAM    25    17      8
                            ___fladd (ARG)
                            ___fldiv (ARG)
                           ___xxtofl (ARG)
 ---------------------------------------------------------------------------------
 (2) ___fldiv                                             25    17      8    2003
                                             13 COMRAM    25    17      8
 ---------------------------------------------------------------------------------
 (2) ___fladd                                             16     8      8    3402
                                             27 COMRAM    16     8      8
                           ___xxtofl (ARG)
 ---------------------------------------------------------------------------------
 Estimated maximum stack depth 2
 ---------------------------------------------------------------------------------
 (Depth) Function   	        Calls       Base Space   Used Autos Params    Refs
 ---------------------------------------------------------------------------------
 (3) _ISR                                                  6     6      0     685
                                              7 COMRAM     6     6      0
                      i2_count_digit
                          i2_display
 ---------------------------------------------------------------------------------
 (4) i2_display                                            1     1      0       0
                                              0 COMRAM     1     1      0
 ---------------------------------------------------------------------------------
 (4) i2_count_digit                                        0     0      0     685
                          i2___lwdiv
                          i2___lwmod
 ---------------------------------------------------------------------------------
 (5) i2___lwmod                                            5     1      4     367
                                              0 COMRAM     5     1      4
 ---------------------------------------------------------------------------------
 (5) i2___lwdiv                                            7     3      4     318
                                              0 COMRAM     7     3      4
 ---------------------------------------------------------------------------------
 Estimated maximum stack depth 5
 ---------------------------------------------------------------------------------

 Call Graph Graphs:

 _main (ROOT)
   _SetDutyCycleTo
     ___fladd
       ___xxtofl (ARG)
     ___fldiv
     ___flmul
       ___fladd (ARG)
         ___xxtofl (ARG)
       ___fldiv (ARG)
       ___xxtofl (ARG)
     ___fltol
       ___fladd (ARG)
         ___xxtofl (ARG)
       ___fldiv (ARG)
       ___flmul (ARG)
         ___fladd (ARG)
           ___xxtofl (ARG)
         ___fldiv (ARG)
         ___xxtofl (ARG)
       ___xxtofl (ARG)
     ___xxtofl
   _count_digit
     ___lwdiv
     ___lwmod
   _delay
   _display

 _ISR (ROOT)
   i2_count_digit
     i2___lwdiv
     i2___lwmod
   i2_display

 Address spaces:
Name               Size   Autos  Total    Cost      Usage
BIGRAM             5F3      0       0      16        0.0%
EEDATA             100      0       0       0        0.0%
BITBANK4           100      0       0      11        0.0%
BANK4              100      0       0      12        0.0%
BITBANK3           100      0       0       9        0.0%
BANK3              100      0       0      10        0.0%
BITBANK2           100      0       0       7        0.0%
BANK2              100      0       0       8        0.0%
BITBANK1           100      0       0       5        0.0%
BANK1              100      0       0       6        0.0%
BITBANK5            F4      0       0      15        0.0%
BANK5               F4      0       0      13        0.0%
BITBANK0            80      0       0       3        0.0%
BANK0               80      6       6       4        4.7%
BITCOMRAM           7E      0       0       0        0.0%
COMRAM              7E     59      6F       1       88.1%
BITSFR_5             0      0       0     200        0.0%
SFR_5                0      0       0     200        0.0%
BITSFR_4             0      0       0     200        0.0%
SFR_4                0      0       0     200        0.0%
BITSFR_3             0      0       0     200        0.0%
SFR_3                0      0       0     200        0.0%
BITSFR_2             0      0       0     200        0.0%
SFR_2                0      0       0     200        0.0%
BITSFR_1             0      0       0     200        0.0%
SFR_1                0      0       0     200        0.0%
BITSFR               0      0       0     200        0.0%
SFR                  0      0       0     200        0.0%
STACK                0      0       0       2        0.0%
NULL                 0      0       0       0        0.0%
ABS                  0      0      75      14        0.0%
DATA                 0      0      75      17        0.0%
CODE                 0      0       0       0        0.0%


Microchip Technology PIC18 Macro Assembler V2.10 build 88905656 
Symbol Table                                                                                   Wed Jan 01 16:04:32 2020

               ___fldiv@aexp 0026                 ___fldiv@bexp 0025                            _i 006B  
                          _j 0069                            _k 0067                 ___fldiv@sign 001E  
                         l77 1758                           l85 1D44                           l95 1552  
         i2___lwdiv@dividend 0001                  __CFG_BORV$3 000000                 __CFG_CP0$OFF 000000  
               __CFG_CP1$OFF 000000                 __CFG_CP2$OFF 000000                 __CFG_CP3$OFF 000000  
                        l104 1852                          l107 1970                          l109 1A18  
                        l417 165A                          l611 1B50                          l621 1C8E  
                        l702 128E                          l704 10EE                          l713 1134  
                        l650 07AE                          l618 1B58                          l715 11AC  
                        l707 10B2                          l716 119A                          l628 1C96  
                        l741 0D86                          l734 0B90                          l751 0EB6  
                        l743 0DFE                          l648 07FA                          l744 0DEC  
                        l665 0914                          l657 0ACA                          l649 07E8  
                        l674 09E4                          l738 0EF4                          l675 09D2  
                        l782 137E                          l775 12E6                          l778 1442  
                        l789 13DA                 __CFG_CPB$OFF 000000                          _PR2 000FCB  
               __CFG_CPD$OFF 000000                          _ISR 0008                          wreg 000FE8  
               ___flmul@aexp 0039                 ___flmul@bexp 003E                 ___flmul@sign 0038  
               ___flmul@temp 0043                 ___flmul@prod 003F                 __CFG_LVP$OFF 000000  
                       ?_ISR 0001                 ___fltol@exp1 004E                 __CFG_WDT$OFF 000000  
                       l3001 130C                         l3011 1366                         l2211 1B10  
                       l2203 1AE6                         l3021 13CA                         l3013 1368  
                       l3005 1320                         l2221 1B44                         l2213 1B1E  
                       l2205 1AEE                         l1501 19C8                         l3101 1508  
                       l3031 1422                         l3023 13E8                         l3015 1374  
                       l3007 1328                         l2223 1B4A                         l2215 1B24  
                       l2207 1B00                         l2231 1C56                         l1511 19EE  
                       l1503 19DA                         l3111 153C                         l3103 150C  
                       l3033 1430                         l3025 13EA                         l3017 13B0  
                       l3009 1334                         l3041 1730                         l2217 1B3A  
                       l2209 1B08                         l2233 1C64                         l2225 1C34  
                       l1513 1A02                         l1505 19E8                         l3105 1510  
                       l3113 1540                         l3035 1432                         l3027 13EE  
                       l3019 13BC                         l3043 1748                         l2219 1B42  
                       l2235 1C7A                         l2227 1C46                         l2331 1CFC  
                       l1515 1A10                         l1507 19EA                         l3107 1524  
                       l3051 1450                         l2501 068A                         l3029 1412  
                       l2237 1C82                         l2229 1C4E                         l2341 1D14  
                       l2333 1D08                         l1509 19EC                         l3109 1530  
                       l3061 1486                         l3053 1452                         l3045 1444  
                       l2511 06B2                         l2503 068C                         l3039 165C  
                       l2239 1C88                         l2351 177E                         l2343 1D2A  
                       l3071 14CE                         l3063 1492                         l3055 145C  
                       l3047 1448                         l2601 0882                         l2521 06EC  
                       l2513 06C2                         l2505 0692                         l2361 17F2  
                       l2353 178A                         l2345 1D2E                         l1481 198A  
                       l1473 194E                         l3081 14DC                         l3073 14D0  
                       l3065 14AE                         l3057 1468                         l3049 144E  
                       l2611 08F4                         l2603 0888                         l2531 0718  
                       l2523 06FE                         l2515 06D2                         l2507 06A0  
                       l2363 180E                         l2355 17A6                         l2347 175A  
                       l2339 1D10                         l1491 19A0                         l1483 1998  
                       l1475 1956                         l3091 14E6                         l3083 14DE  
                       l3075 14D2                         l3067 14BA                         l3059 146A  
                       l2621 094E                         l2605 08AE                         l2613 0904  
                       l2541 072C                         l2533 071C                         l2525 070C  
                       l2517 06D4                         l2509 06A2                         l2701 0F62  
                       l2365 1836                         l2357 17C2                         l2349 1762  
                       l1493 19C0                         l1485 199A                         l3093 14E8  
                       l3085 14E0                         l3077 14D4                         l3069 14C4  
                       l2631 097E                         l2623 0958                         l2615 092A  
                       l2607 08E2                         l2551 0740                         l2543 0730  
                       l2535 0720                         l2527 0710                         l2519 06DC  
                       l2711 0F98                         l2703 0F68                         l2359 17CA  
                       l1495 19C2                         l1487 199C                         l1479 1978  
                       l3095 14EA                         l3087 14E2                         l3079 14DA  
                       l2641 09A6                         l2633 0982                         l2625 0966  
                       l2617 093A                         l2609 08E4                         l2561 077A  
                       l2553 0744                         l2545 0734                         l2537 0724  
                       l2529 0714                         l2481 0618                         l2801 124E  
                       l2721 0FD8                         l2713 0FA8                         l2705 0F76  
                       l1497 19C4                         l1489 199E                         l3097 14EC  
                       l3089 14E4                         l2651 0A00                         l2643 09B4  
                       l2635 0992                         l2627 0968                         l2571 07CC  
                       l2563 0796                         l2555 0748                         l2547 0738  
                       l2539 0728                         l2491 0658                         l2483 0626  
                       l2811 1284                         l2803 126A                         l2723 0FE8  
                       l2731 1008                         l2715 0FAA                         l2707 0F78  
                       l1499 19C6                         l3099 1502                         l2661 0A6A  
                       l2653 0A0E                         l2645 09CA                         l2629 0976  
                       l2637 0994                         l2581 0818                         l2573 07DA  
                       l2565 07A6                         l2549 073C                         l2557 074C  
                       l2493 065A                         l2485 0628                         l2805 126E  
                       l2741 1046                         l2733 1018                         l2725 0FF0  
                       l2709 0F88                         l2717 0FB2                         l2901 0D6C  
                       l2821 0AD8                         l2671 0AA4                         l2663 0A8A  
                       l2655 0A48                         l2591 0858                         l2639 09A2  
                       l2575 07DC                         l2567 07BC                         l2559 0750  
                       l2487 0638                         l2495 0662                         l2479 060C  
                       l2807 127C                         l2751 108E                         l2743 1056  
                       l2735 1018                         l2727 0FF4                         l2719 0FC2  
                       l2911 0DA8                         l2903 0D76                         l2831 0B18  
                       l2823 0AE6                         l2673 0AAA                         l2665 0A8E  
                       l2649 09F4                         l2657 0A4A                         l2593 0864  
                       l2585 082C                         l2577 07E6                         l2569 07C8  
                       l2497 0672                         l2489 0648                         l2809 1282  
                       l2761 10DC                         l2753 10A2                         l2745 1066  
                       l2681 0EF6                         l2921 0E1A                         l2913 0DB6  
                       l2905 0D84                         l2841 0B48                         l2833 0B1E  
                       l2825 0AE8                         l2675 0AB8                         l2667 0A9C  
                       l2659 0A5A                         l2595 0868                         l2587 083C  
                       l2579 0808                         l2499 0678                         l2771 1124  
                       l2763 10EC                         l2755 10B0                         l2747 1076  
                       l2739 102C                         l2691 0F32                         l2683 0F02  
                       l2931 0E84                         l2923 0E28                         l2915 0DE4  
                       l2907 0D96                         l2851 0B80                         l2843 0B4A  
                       l2835 0B2E                         l2827 0AF8                         l2819 0ACC  
                       l2677 0ABA                         l2669 0AA2                         l2597 0876  
                       l2589 084A                         l2781 1164                         l2773 1132  
                       l2765 10FE                         l2757 10BC                         l2749 107E  
                       l2693 0F42                         l2685 0F10                         l2941 0EDA  
                       l2933 0E9E                         l2925 0E52                         l2909 0DA4  
                       l2861 0BD0                         l2853 0BA0                         l2845 0B5A  
                       l2837 0B34                         l2829 0B08                         l2599 0878  
                       l2791 11D6                         l2783 1192                         l2767 1114  
                       l2775 1144                         l2759 10DA                         l2695 0F44  
                       l2687 0F12                         l2935 0EBA                         l2943 0EE0  
                       l2919 0E0E                         l2927 0E56                         l2871 0C20  
                       l2863 0BDA                         l2855 0BB0                         l2847 0B6A  
                       l2839 0B3A                         l2951 156C                         l2793 1200  
                       l2777 1152                         l2769 111A                         l2689 0F22  
                       l2697 0F4C                         l2945 0EE4                         l2937 0ECA  
                       l2929 0E70                         l2881 0C62                         l2873 0C2C  
                       l2865 0BF0                         l2849 0B7A                         l2961 15BC  
                       l2787 11BC                         l2795 1204                         l2779 1156  
                       l2699 0F5C                         l2939 0ED8                         l2891 0CC4  
                       l2883 0C72                         l2875 0C3A                         l2867 0BFC  
                       l2859 0BC4                         l2971 15E6                         l2963 15C0  
                       l2955 1580                         l2797 121E                         l2789 11C8  
                       l2893 0CE0                         l2885 0C8C                         l2877 0C46  
                       l2869 0C14                         l2981 160E                         l2973 15F0  
                       l2965 15CE                         l2957 15AA                         l2949 1556  
                       l2799 1234                         l2895 0D0A                         l2887 0C9C  
                       l2879 0C56                         l2983 161A                         l2975 15FA  
                       l2959 15AC                         l2897 0D40                         l2889 0CB8  
                       l2985 162A                         l2993 1292                         l2899 0D4E  
                       l2987 163A                         l2995 12A2                         l2989 164A  
                       l2997 12B0                         l2999 12F6                         u1130 196C  
                       u1131 1968                         u2100 1C46                         u2101 1C42  
                       u2110 1C64                         u2111 1C60                         u3000 0B5A  
                       u2120 1C7A                         u3001 0B56                         u2121 1C76  
                       u3010 0B6A                         u3011 0B66                         u3100 0E0E  
                       u3020 0BA0                         u2300 1D44                         u3101 0E0A  
                       u3021 0B9C                         u2301 1D40                         u3110 0E28  
                       u3030 0BB0                         u2070 1B00                         u3111 0E24  
                       u3031 0BAC                         u2071 1AFC                         u2400 06C2  
                       u3120 0E70                         u3040 0D2A                         u3200 162A  
                       u2080 1B1E                         _LATD 000F8C                         u2401 06BE  
                       u3121 0E6C                         u3201 1626                         u2081 1B1A  
                       u2410 06FE                         u3130 0E9E                         u3050 0D84  
                       u3210 163A                         u2090 1B3A                         u2411 06FA  
                       u3131 0E9A                         u3051 0D80                         u3211 1636  
                       u2091 1B36                         u2500 0818                         u2420 070C  
                       u2340 0626                         u3140 0ED8                         u3060 0DA4  
                       u3300 1422                         u3220 12A2                         u2501 0814  
                       u2421 0708                         u2341 0622                         u3141 0ED4  
                       u3061 0DA0                         u3045 0D20                         u3301 141E  
                       u3221 129E                         u2510 084A                         u2430 077A  
                       u2350 0638                         u3070 0DB6                         u3150 156C  
                       u3310 1430                         u3230 12B0                         u2511 0846  
                       u2431 0776                         u2351 0634                         u3071 0DB2  
                       u3151 1568                         u3311 142C                         u3231 12AC  
                       u2600 0992                         u2520 0858                         u2440 0792  
                       u2360 0648                         u3080 0DE4                         u3160 15A0  
                       u3240 130C                         u3320 1524                         u2601 098E  
                       u2521 0854                         u2441 078C                         u2361 0644  
                       u3081 0DE0                         u3241 1308                         u3321 1520  
                       u2610 09A2                         u2530 0876                         u2450 0794  
                       u2370 068A                         u3090 0DFA                         u3170 15CE  
                       u3250 1362                         u2290 1D2A                         u3330 1552  
                       u2611 099E                         u2531 0872                         u2371 0686  
                       u3091 0DF6                         u3171 15CA                         u3251 135E  
                       u2291 1D26                         u3331 154E                         u2700 0A8A  
                       u2620 09B4                         u2540 08AE                         u2460 07BC  
                       u2380 06A0                         u3180 15E2                         u3260 13AC  
                       u2701 0A86                         u2621 09B0                         u2541 08AA  
                       u2461 07B8                         u2381 069C                         u3181 15DE  
                       u3165 1596                         u3261 13A8                         u2710 0A9C  
                       u2630 09CA                         u2550 08F4                         u2470 07DA  
                       u2390 06B2                         u3190 160A                         u3270 13CA  
                       u2711 0A98                         u2631 09C6                         u2551 08F0  
                       u2471 07D6                         u2391 06AE                         u3191 1606  
                       u3271 13C6                         u2720 0AB8                         u2640 09E0  
                       u2560 092A                         u2480 07FA                         u2800 1018  
                       u3280 13DA                         u2721 0AB4                         u2641 09DC  
                       u2561 0926                         u2481 07F6                         u2801 1014  
                       u3281 13D6                         u2650 09F4                         u2570 093A  
                       u2490 0808                         u2810 108E                         u2730 0F10  
                       u3290 13E8                         u2651 09F0                         u2571 0936  
                       u2491 0804                         u2811 108A                         u2731 0F0C  
                       u3291 13E4                         u3347 1990                         u2660 0A0E  
                       u2580 0966                         u2900 11A8                         u2820 10B0  
                       u2740 0F22                         u2661 0A0A                         u2581 0962  
                       u2901 11A4                         u2821 10AC                         u2741 0F1E  
                       u3357 19B8                         u2670 0A48                         u2590 0976  
                       u2910 11BC                         u2830 10DA                         u2750 0F32  
                       u2671 0A44                         u2591 0972                         u2911 11B8  
                       u2831 10D6                         u2751 0F2E                         u3367 19E0  
                       u2680 0A5A                         u2920 11D6                         u2840 10FE  
                       u2760 0F76                         u2681 0A56                         u2921 11D2  
                       u2841 10FA                         u2761 0F72                         u3377 1A08  
                       u2690 0A6A                         u2930 121E                         u2850 1114  
                       u2770 0F88                         u2691 0A66                         u2931 121A  
                       u2851 1110                         u2771 0F84                         u2940 124E  
                       u2860 1132                         u2780 0F98                         u2941 124A  
                       u2861 112E                         u2781 0F94                         u2950 127C  
                       u2870 1152                         u2790 0FD8                         u2951 1278  
                       u2871 114E                         u2791 0FD4                         u2880 1164  
                       u2960 0AE6                         u2881 1160                         u2961 0AE2  
                       u2890 1192                         u2970 0AF8                         u2891 118E  
                       u2971 0AF4                         u2980 0B08                         u2981 0B04  
                       u2990 0B48                         u2991 0B44                         _TMR2 000FCC  
   SetDutyCycleTo@Duty_cycle 004F                 ?_count_digit 0001                         _main 1444  
                       _num0 0063                         _num1 0061                         _num2 005F  
                       _num3 005D                         _num4 005B                         _time 0059  
         i2___lwdiv@quotient 0005                         btemp 006D                         prodh 000FF4  
                       prodl 000FF3                         start 000E                __CFG_IESO$OFF 000000  
            ___fldiv@new_exp 001F                __CFG_MCLRE$ON 000000                 ___param_bank 000000  
                      ??_ISR 0008                ___fltol@sign1 004D              __end_of___fladd 0ACC  
                      ?_main 0001              __end_of___fldiv 1290              __end_of___flmul 0EF6  
            __end_of___fltol 165C                        _CMCON 000FB4                        _T2CON 000FCA  
            __end_of___lwdiv 1B5A                        i2l101 1C20                        i2l104 194C  
            __end_of___lwmod 1C98                        i2l107 1A3C                        i2l109 1AE4  
                      i2l611 1BC4                        i2l621 1CF2                        i2l618 1BCC  
                      i2l628 1CFA                        _TRISA 000F92                        _TRISD 000F95  
              __CFG_PWRT$OFF 000000                __CFG_WRT0$OFF 000000                __CFG_WRT1$OFF 000000  
              __CFG_WRT2$OFF 000000                __CFG_WRT3$OFF 000000               __CFG_EBTR0$OFF 000000  
             __CFG_FCMEN$OFF 000000               __CFG_EBTR1$OFF 000000               __CFG_EBTR2$OFF 000000  
             __CFG_EBTR3$OFF 000000                __CFG_WRTB$OFF 000000              __end_of_display 1A1A  
              __CFG_WRTC$OFF 000000                __CFG_WRTD$OFF 000000               __CFG_EBTRB$OFF 000000  
                      _delay 1CFC                        _count 0065                        _value 0601  
                      tablat 000FF5                        ttemp5 006E                        ttemp6 0071  
                      ttemp7 0075                        status 000FD8                        wtemp8 006E  
         __size_ofi2___lwdiv 0074           __size_ofi2___lwmod 0064              __initialization 1D46  
               __end_of_main 1556           __size_ofi2_display 00CC                       ??_main 0057  
              __activetblptr 000001                       ?_delay 000E                       _CCPR1L 000FBE  
                     i2l2301 1BAE                       i2l2303 1BB6                       i2l2311 1CAA  
                     i2l2305 1BB8                       i2l2321 1CE6                       i2l2313 1CB2  
                     i2l2307 1BBE                       i2l2323 1CEC                       i2l2315 1CBA  
                     i2l2317 1CC8                       i2l2309 1C98                       i2l1541 1A1A  
                     i2l2319 1CDE                       i2l1551 1A64                       i2l1543 1A22  
                     i2l1561 1A8C                       i2l1553 1A66                       i2l2291 1B74  
                     i2l2371 185C                       i2l1571 1AA6                       i2l1563 1A8E  
                     i2l1555 1A68                       i2l1547 1A44                       i2l2293 1B7C  
                     i2l2381 18C4                       i2l2373 1878                       i2l1581 1ACE  
                     i2l1573 1AB4                       i2l1565 1A90                       i2l1557 1A6A  
                     i2l1549 1A56                       i2l2461 1BE0                       i2l2295 1B84  
                     i2l2287 1B5A                       i2l2383 18EC                       i2l2375 1884  
                     i2l1583 1ADC                       i2l1575 1AB6                       i2l1567 1A92  
                     i2l1559 1A6C                       i2l2471 1C16                       i2l2463 1BEE  
                     i2l2297 1B92                       i2l2289 1B62                       i2l2385 1908  
                     i2l2377 18A0                       i2l2369 1854                       i2l1577 1AB8  
                     i2l1569 1A94                       i2l2473 1C1A                       i2l2465 1BF0  
                     i2l2299 1B98                       i2l2387 1930                       i2l2379 18BC  
                     i2l1579 1ABA                       i2l2475 1C1E                       i2l2467 1C08  
                     i2l2469 1C0A                       _OSCCON 000FD3             __end_of___xxtofl 1444  
           ??_SetDutyCycleTo 0055               __CFG_XINST$OFF 000000                    ??___fladd 0024  
                  ??___fldiv 0016               __CFG_STVREN$ON 000000                    ??___flmul 0034  
                  ??___fltol 0049                    ??___lwdiv 0012                    ??___lwmod 0012  
                     delay@i 0010                       delay@j 0012                       clear_0 1D4C  
                  ??_display 000E            __end_ofi2___lwdiv 1BCE                 __mediumconst 0000  
          __end_ofi2___lwmod 1CFC                       tblptrh 000FF7                       tblptrl 000FF6  
                     tblptru 000FF8            __end_ofi2_display 1AE6                 ___xxtofl@arg 0018  
               ___xxtofl@exp 0017                 ___xxtofl@val 000E                   __accesstop 0080  
    __end_of__initialization 1D52              __CFG_PBADEN$OFF 000000                ___rparam_used 000001  
                 ___fltol@f1 0045         __size_of_count_digit 00FA           i2___lwmod@dividend 0001  
             __pcstackCOMRAM 0001                __end_of_delay 1D46                __end_of_value 060B  
     __size_ofi2_count_digit 00FA                      ??_delay 0010                      _CCP1CON 000FBD  
                    _INTCON2 000FF1                    ?___xxtofl 000E                i2_count_digit 1854  
                    __Hparam 0000                      __Lparam 0000                      ___fladd 060C  
                    ___fldiv 0EF6                      ___flmul 0ACC                      ___fltol 1556  
                    ___lwdiv 1AE6                      ___lwmod 1C34                 __psmallconst 0600  
                    __pcinit 1D46                      __ramtop 0600                      __ptext0 1444  
                    __ptext1 194E                      __ptext2 1CFC                      __ptext3 175A  
                    __ptext4 1C34                      __ptext5 1AE6                      __ptext6 165C  
                    __ptext7 1290                      __ptext8 1556                      __ptext9 0ACC  
                    _display 194E                 __size_of_ISR 1C2C                    _T2CONbits 000FCA  
                 ??___xxtofl 0012               __pintcode_body 1BCE         end_of_initialization 1D52  
                    int_func 1BCE               ?i2_count_digit 0001                      postinc0 000FEE  
                  _PORTBbits 000F81                  ___fladd@grs 002B                ___xxtofl@sign 0016  
                  _TRISAbits 000F92                    _TRISBbits 000F93                    _TRISCbits 000F94  
                  _TRISDbits 000F95                  ___fldiv@grs 0021                  ___fldiv@rem 001A  
       SetDutyCycleTo@Period 0053            i2___lwdiv@divisor 0003                    i2___lwdiv 1B5A  
                  i2___lwmod 1C98            i2___lwdiv@counter 0007                  ___flmul@grs 003A  
                  i2_display 1A1A          start_initialization 1D46                  __end_of_ISR 1C34  
            _delay_forsecond 0057                   ?i2___lwdiv 0001                   ?i2___lwmod 0001  
            ??i2_count_digit 0008                ??_count_digit 0015                   ?i2_display 0001  
           __CFG_OSC$INTIO67 000000  SetDutyCycleTo@PWM10BitValue 0084             __CFG_LPT1OSC$OFF 000000  
    __size_of_SetDutyCycleTo 00FE                    ___fladd@a 0020                    ___fladd@b 001C  
                  ___fldiv@a 0012                    ___fldiv@b 000E                    ___flmul@a 0030  
                  ___flmul@b 002C                  __pbssCOMRAM 0057                __pcstackBANK0 0080  
          i2___lwmod@divisor 0003            __size_of___xxtofl 01B4            i2___lwmod@counter 0005  
           ___lwdiv@dividend 000E            __CFG_CCP2MX$PORTC 000000          __end_of_count_digit 1854  
                  __pintcode 0008                     ?___fladd 001C                     ?___fldiv 000E  
                   ?___flmul 002C                     ?___fltol 0045                     ?___lwdiv 000E  
                   ?___lwmod 000E                     ?_display 0001                  __smallconst 0600  
           ___lwdiv@quotient 0012               __size_of_delay 004A                  ??i2___lwdiv 0005  
                ??i2___lwmod 0005                     _LATAbits 000F89                  ??i2_display 0001  
                   i2u114_40 1A38                     i2u114_41 1A34                     i2u223_40 1B74  
                   i2u223_41 1B70                     i2u224_40 1B92                     i2u224_41 1B8E  
                   i2u225_40 1BAE                     i2u233_40 1BEE                     i2u225_41 1BAA  
                   i2u233_41 1BEA                     i2u226_40 1CAA                     i2u226_41 1CA6  
                   i2u227_40 1CC8                     i2u227_41 1CC4                     i2u228_40 1CDE  
                   i2u228_41 1CDA                     i2u340_47 1A84                     i2u341_47 1AAC  
                   i2u342_47 1AD4                     i2u338_47 1BFA                     i2u339_47 1A5C  
                   _RCONbits 000FD0             __CFG_WDTPS$32768 000000                   _ADCON0bits 000FC2  
                 _ADCON1bits 000FC1                  _count_digit 175A                     __Hrparam 0000  
                   __Lrparam 0000                 __Lsmallconst 0600           __CFG_BOREN$SBORDIS 000000  
           __size_of___fladd 04C0             __size_of___fldiv 039A             __size_of___flmul 042A  
             _SetDutyCycleTo 165C             __size_of___fltol 0106             __size_of___lwdiv 0074  
           __size_of___lwmod 0064             __size_of_display 00CC                     ___xxtofl 1290  
            ___lwdiv@divisor 0010              ___lwdiv@counter 0014                     __ptext10 0EF6  
                   __ptext11 060C                     __ptext13 1A1A                     __ptext14 1854  
                   __ptext15 1C98                     __ptext16 1B5A                __size_of_main 0112  
                   delay@val 000E       __end_of_SetDutyCycleTo 175A                     int$flags 006D  
                 _INTCONbits 000FF2                     intlevel2 0000             ___lwmod@dividend 000E  
      __end_ofi2_count_digit 194E              ?_SetDutyCycleTo 004F              ___lwmod@divisor 0010  
            ___lwmod@counter 0012          _SetDutyCycleTo$1340 0080                ___fladd@signs 0028  
               ___fladd@aexp 0029                 ___fladd@bexp 002A  
